(dp1
S'output'
p2
S"<type 'exceptions.NameError'> name 'r' is not defined"
p3
sS'layer'
p4
S'C:\\Users\\unuse\\OneDrive\\Documents\\CMPS 183\\web2py\\applications\\ratemyresume\\views\\default/hub.html'
p5
sS'code'
p6
S'response.write(\'<html>\\r\\n  <head>\\r\\n    <meta charset="utf-8">\\r\\n    <meta http-equiv="X-UA-Compatible" content="IE=edge,chrome=1">\\r\\n    <meta name="viewport" content="width=device-width, initial-scale=1.0" />\\r\\n    <meta name="apple-mobile-web-app-capable" content="yes" />\\r\\n    <link href="\', escape=False)\nresponse.write(URL(\'static\',\'css/stupid.css\'))\nresponse.write(\'" rel="stylesheet" type="text/css"/>\\r\\n    <link href="\', escape=False)\nresponse.write(URL(\'static\',\'css/custom.css\'))\nresponse.write(\'" rel="stylesheet" type="text/css"/>\\r\\n    <link href="\', escape=False)\nresponse.write(URL(\'static\',\'css/calendar.css\'))\nresponse.write(\'" rel="stylesheet" type="text/css"/>\\r\\n    <link href="\', escape=False)\nresponse.write(URL(\'static\',\'css/web2py.css\'))\nresponse.write(\'" rel="stylesheet" type="text/css"/>\\r\\n    <link href="\', escape=False)\nresponse.write(URL(\'static\',\'css/myapp.css\'))\nresponse.write(\'" rel="stylesheet" type="text/css"/>\\r\\n    <link rel="stylesheet" href="\', escape=False)\nresponse.write(URL(\'static\', \'font-awesome-4.6.3/css/font-awesome.min.css\'))\nresponse.write(\'">\\r\\n    \', escape=False)\nresponse.write(\'<script type="text/javascript"><!--\\r\\n    // These variables are used by the web2py_ajax_init function in web2py_ajax.js (which is loaded below).\\r\\n    var w2p_ajax_confirm_message = "\', escape=False)\nresponse.write(T(\'Are you sure you want to delete this object?\'))\nresponse.write(\'";\\r\\n    var w2p_ajax_disable_with_message = "\', escape=False)\nresponse.write(T(\'Working...\'))\nresponse.write(\'";\\r\\n    var w2p_ajax_date_format = "\', escape=False)\nresponse.write(T(\'%Y-%m-%d\'))\nresponse.write(\'";\\r\\n    var w2p_ajax_datetime_format = "\', escape=False)\nresponse.write(T(\'%Y-%m-%d %H:%M:%S\'))\nresponse.write(\'";\\r\\n    var ajax_error_500 = \\\'\', escape=False)\nresponse.write(T.M(\'An error occured, please [[reload %s]] the page\') % URL(args=request.args, vars=request.get_vars))\nresponse.write("\'\\r\\n    //--></script>\\r\\n", escape=False)\nresponse.files.insert(0,URL(\'static\',\'js/jquery.js\'))\nresponse.files.insert(1,URL(\'static\',\'css/calendar.css\'))\nresponse.files.insert(2,URL(\'static\',\'js/calendar.js\'))\nresponse.files.insert(3,URL(\'static\',\'js/web2py.js\'))\nresponse.include_meta()\nresponse.include_files()\nresponse.write(\'\\r\\n\', escape=False)\nresponse.write(\'\\r\\n    \', escape=False)\nresponse.write(\'\\r\\n<script src="\', escape=False)\nresponse.write(URL(\'static\', \'js/vue.js\'))\nresponse.write(\'"></script>\\r\\n\\r\\n\', escape=False)\nresponse.write(\'\\r\\n  </head>\\r\\n  <body class="black">\\r\\n    \', escape=False)\nif response.flash:\n    response.write(\'\\r\\n    <div class="w2p_flash">\\r\\n      \', escape=False)\n    response.write(response.flash)\n    response.write(\'\\r\\n    </div>\\r\\n    \', escape=False)\n    pass\nresponse.write(\'\\r\\n    <header class="black padded">\\r\\n      <div class="container middle max900">\\r\\n        <div class="fill middle">\\r\\n          <label class="ham padded fa fa-bars" for="menu"></label>\\r\\n          <div class="burger accordion">\\r\\n            <input type="checkbox" id="menu"/>\\r\\n            \', escape=False)\nresponse.write(MENU(response.menu,_class=\'menu\'))\nresponse.write(\'\\r\\n            <ul class="menu right">\\r\\n              <li>\\r\\n                \', escape=False)\nresponse.write(auth.navbar(mode=\'dropdown\'))\nresponse.write(\'\\r\\n              </li>\\r\\n            </ul>\\r\\n          </div>\\r\\n        </div>\\r\\n      </div>\\r\\n    </header>\\r\\n    <main class="white" style="background: #E9EBEE">\\r\\n      \', escape=False)\nresponse.write(\'\\r\\n\\r\\n\', escape=False)\nresponse.write(\'\\r\\n\\r\\n<!DOCTYPE html>\\r\\n<html lang="en">\\r\\n<div class="main_content">\\r\\n  <div id="vue-div" class="display:none">\\r\\n    <div class="container padded center resume_view">\\r\\n      <h4>My Resume </h4>\\r\\n      Resume Image <br>\\r\\n      Resume Title <br>\\r\\n      Average Score <br>\\r\\n    </div>\\r\\n\\r\\n      <div class="container padded center" v-show="!show_resume_feedback">\\r\\n          <button type="button" @click="show_feedback">Show Feedback</button>\\r\\n      </div>\\r\\n      <div class="container padded center" v-show="show_resume_feedback">\\r\\n          <button type="button" @click="show_feedback">Hide Feedback</button>\\r\\n          <div onmouseover="listing_mouseover(this)" onmouseout="listing_mouseout(this)" class="feedback_listing container">\\r\\n              <div class="third container">\\r\\n                  <div class="half">\\r\\n                      <i class="center fa fa-user fa-3x" aria-hidden="true"></i>\\r\\n                  </div>\\r\\n                  <div class="half">\\r\\n                      <div class="listing_author listing_text">John Doe</div>\\r\\n                      <div class="listing_text">Software Engineer</div>\\r\\n                  </div>\\r\\n              </div>\\r\\n              <div class="twothirds">\\r\\n                  <div class="listing_description listing_text">Lorem ipsum dolor sit amet, consectetur adipiscing elit. Integer turpis enim, varius nec faucibus interdum, fringilla in ante. Nunc non luctus neque, vel sagittis risus. Donec at nisi eu nisi blandit tempor vitae in ipsum. Cras et est sit amet metus.</div>\\r\\n              </div>\\r\\n          </div>\\r\\n          <div onmouseover="listing_mouseover(this)" onmouseout="listing_mouseout(this)" class="feedback_listing container">\\r\\n              <div class="third container">\\r\\n                  <div class="half">\\r\\n                      <i class="center fa fa-user fa-3x" aria-hidden="true"></i>\\r\\n                  </div>\\r\\n                  <div class="half">\\r\\n                      <div class="listing_author listing_text">John Doe</div>\\r\\n                      <div class="listing_text">Software Engineer</div>\\r\\n                  </div>\\r\\n              </div>\\r\\n              <div class="twothirds">\\r\\n                  <div class="listing_description listing_text">Lorem ipsum dolor sit amet, consectetur adipiscing elit. Integer turpis enim, varius nec faucibus interdum, fringilla in ante. Nunc non luctus neque, vel sagittis risus. Donec at nisi eu nisi blandit tempor vitae in ipsum. Cras et est sit amet metus.</div>\\r\\n              </div>\\r\\n          </div>\\r\\n          <div onmouseover="listing_mouseover(this)" onmouseout="listing_mouseout(this)" class="feedback_listing container">\\r\\n              <div class="third container">\\r\\n                  <div class="half">\\r\\n                      <i class="center fa fa-user fa-3x" aria-hidden="true"></i>\\r\\n                  </div>\\r\\n                  <div class="half">\\r\\n                      <div class="listing_author listing_text">John Doe</div>\\r\\n                      <div class="listing_text">Software Engineer</div>\\r\\n                  </div>\\r\\n              </div>\\r\\n              <div class="twothirds">\\r\\n                  <div class="listing_description listing_text">Lorem ipsum dolor sit amet, consectetur adipiscing elit. Integer turpis enim, varius nec faucibus interdum, fringilla in ante. Nunc non luctus neque, vel sagittis risus. Donec at nisi eu nisi blandit tempor vitae in ipsum. Cras et est sit amet metus.</div>\\r\\n              </div>\\r\\n          </div>\\r\\n      </div>\\r\\n\\r\\n    <div class="container padded center" v-show="!show_past_resumes">\\r\\n      <button type="button" name="button" @click="show_past_resume">Show Past Resumes</button>\\r\\n    </div>\\r\\n      <div class="container padded center" v-show="show_past_resumes">\\r\\n        <a href="\', escape=False)\nresponse.write(URL(\'default\', \'edit\', args=[r[\'id\']]))\nresponse.write(\'" class="btn">\\r\\n            <i class="fa fa-pencil-square-o"></i> Edit\\r\\n        </a>\\r\\n      <button type="button" name="button" @click="show_past_resume">Hide Past Resumes</button>\\r\\n        <div onmouseover="listing_mouseover(this)" onmouseout="listing_mouseout(this)" class="resume_listing container">\\r\\n            <div class="half container">\\r\\n                <div class="third"></div>\\r\\n                <div class ="third">\\r\\n                    <span>\\r\\n                        <i style="margin: 25px auto" class="fa fa-file-text fa-5x" aria-hidden="true"></i>\\r\\n                    </span>\\r\\n                </div>\\r\\n            </div>\\r\\n            <div class="half container">\\r\\n                <h6>Resume Title</h6>\\r\\n                <div class="listing_author listing_text">Author: John Doe</div>\\r\\n                <div class="listing_date listing_text">Date: December 25, 2018</div>\\r\\n                <div class="listing_description listing_text">Lorem ipsum dolor sit amet, consectetur adipiscing elit. Integer turpis enim, varius nec faucibus interdum, fringilla in ante. Nunc non luctus neque, vel sagittis risus. Donec at nisi eu nisi blandit tempor vitae in ipsum. Cras et est sit amet metus.</div>\\r\\n            </div>\\r\\n        </div>\\r\\n        <div onmouseover="listing_mouseover(this)" onmouseout="listing_mouseout(this)" class="resume_listing container">\\r\\n            <div class="half container">\\r\\n                <div class="third"></div>\\r\\n                <div class ="third">\\r\\n                    <span>\\r\\n                        <i style="margin: 25px auto" class="fa fa-file-text fa-5x" aria-hidden="true"></i>\\r\\n                    </span>\\r\\n                </div>\\r\\n            </div>\\r\\n            <div class="half container">\\r\\n                <h6>Resume Title</h6>\\r\\n                <div class="listing_author listing_text">Author: John Doe</div>\\r\\n                <div class="listing_date listing_text">Date: December 25, 2018</div>\\r\\n                <div class="listing_description listing_text">Lorem ipsum dolor sit amet, consectetur adipiscing elit. Integer turpis enim, varius nec faucibus interdum, fringilla in ante. Nunc non luctus neque, vel sagittis risus. Donec at nisi eu nisi blandit tempor vitae in ipsum. Cras et est sit amet metus.</div>\\r\\n            </div>\\r\\n        </div>\\r\\n    </div>\\r\\n</div>\\r\\n</div>\\r\\n\\r\\n\\r\\n<script src="\', escape=False)\nresponse.write(URL(\'static\', \'js/default_hub.js\'))\nresponse.write(\'"></script>\', escape=False)\nresponse.write(\'\\r\\n    </main>\\r\\n  </body>\\r\\n  <script src="\', escape=False)\nresponse.write(URL(\'static\',\'js/marked.min.js\'))\nresponse.write(\'"></script>\\r\\n  <script src="\', escape=False)\nresponse.write(URL(\'static\',\'js/vue.min.js\'))\nresponse.write(\'"></script>\\r\\n  \', escape=False)\nresponse.write("\\r\\n  <script>\\r\\n    jQuery(\'.social a\').each(function(){var t=jQuery(this); t.attr(\'href\',t.attr(\'href\').replace(\'{url}\',encodeURIComponent(window.location.href)));});\\r\\n  </script>\\r\\n</html>\\r\\n", escape=False)'
p7
sS'snapshot'
p8
(dp9
S'exception'
p10
(dp11
S'__getslice__'
p12
S"<method-wrapper '__getslice__' of exceptions.NameError object>"
p13
sS'__str__'
p14
S"<method-wrapper '__str__' of exceptions.NameError object>"
p15
sS'__reduce__'
p16
S'<built-in method __reduce__ of exceptions.NameError object>'
p17
sS'__dict__'
p18
S'{}'
p19
sS'message'
p20
S'"name \'r\' is not defined"'
p21
sS'__sizeof__'
p22
S'<built-in method __sizeof__ of exceptions.NameError object>'
p23
sS'__init__'
p24
S"<method-wrapper '__init__' of exceptions.NameError object>"
p25
sS'__setattr__'
p26
S"<method-wrapper '__setattr__' of exceptions.NameError object>"
p27
sS'__reduce_ex__'
p28
S'<built-in method __reduce_ex__ of exceptions.NameError object>'
p29
sS'__new__'
p30
S'<built-in method __new__ of type object>'
p31
sS'__format__'
p32
S'<built-in method __format__ of exceptions.NameError object>'
p33
sS'__class__'
p34
S"<type 'exceptions.NameError'>"
p35
sS'__doc__'
p36
S"'Name not found globally.'"
p37
sS'__getitem__'
p38
S"<method-wrapper '__getitem__' of exceptions.NameError object>"
p39
sS'__setstate__'
p40
S'<built-in method __setstate__ of exceptions.NameError object>'
p41
sS'__getattribute__'
p42
S"<method-wrapper '__getattribute__' of exceptions.NameError object>"
p43
sS'args'
p44
S'("name \'r\' is not defined",)'
p45
sS'__subclasshook__'
p46
S'<built-in method __subclasshook__ of type object>'
p47
sS'__unicode__'
p48
S'<built-in method __unicode__ of exceptions.NameError object>'
p49
sS'__delattr__'
p50
S"<method-wrapper '__delattr__' of exceptions.NameError object>"
p51
sS'__repr__'
p52
S"<method-wrapper '__repr__' of exceptions.NameError object>"
p53
sS'__hash__'
p54
S"<method-wrapper '__hash__' of exceptions.NameError object>"
p55
ssS'evalue'
p56
S"name 'r' is not defined"
p57
sS'request'
p58
cgluon.html
XML_unpickle
p59
(S's\x06\xb0\x00\x00<div><table><tr><td style="font-weight:bold;vertical-align:top;">ajax</td><td style="vertical-align:top;">:</td><td><div>False</div></td></tr><tr><td style="font-weight:bold;vertical-align:top;">application</td><td style="vertical-align:top;">:</td><td><div>ratemyresume</div></td></tr><tr><td style="font-weight:bold;vertical-align:top;">args</td><td style="vertical-align:top;">:</td><td><div><table></table></div></td></tr><tr><td style="font-weight:bold;vertical-align:top;">cid</td><td style="vertical-align:top;">:</td><td><div>None</div></td></tr><tr><td style="font-weight:bold;vertical-align:top;">client</td><td style="vertical-align:top;">:</td><td><div>127.0.0.1</div></td></tr><tr><td style="font-weight:bold;vertical-align:top;">controller</td><td style="vertical-align:top;">:</td><td><div>default</div></td></tr><tr><td style="font-weight:bold;vertical-align:top;">cookies</td><td style="vertical-align:top;">:</td><td><div><table><tr><td style="font-weight:bold;vertical-align:top;">session_id_admin</td><td style="vertical-align:top;">:</td><td><div>127.0.0.1-551be2b0-5d36-416e-9080-6cda1a688a70<table><tr><td style="font-weight:bold;vertical-align:top;">comment</td><td style="vertical-align:top;">:</td><td><div></div></td></tr><tr><td style="font-weight:bold;vertical-align:top;">domain</td><td style="vertical-align:top;">:</td><td><div></div></td></tr><tr><td style="font-weight:bold;vertical-align:top;">expires</td><td style="vertical-align:top;">:</td><td><div></div></td></tr><tr><td style="font-weight:bold;vertical-align:top;">httponly</td><td style="vertical-align:top;">:</td><td><div></div></td></tr><tr><td style="font-weight:bold;vertical-align:top;">max-age</td><td style="vertical-align:top;">:</td><td><div></div></td></tr><tr><td style="font-weight:bold;vertical-align:top;">path</td><td style="vertical-align:top;">:</td><td><div></div></td></tr><tr><td style="font-weight:bold;vertical-align:top;">samesite</td><td style="vertical-align:top;">:</td><td><div></div></td></tr><tr><td style="font-weight:bold;vertical-align:top;">secure</td><td style="vertical-align:top;">:</td><td><div></div></td></tr><tr><td style="font-weight:bold;vertical-align:top;">version</td><td style="vertical-align:top;">:</td><td><div></div></td></tr></table></div></td></tr><tr><td style="font-weight:bold;vertical-align:top;">session_id_hw2</td><td style="vertical-align:top;">:</td><td><div>3:1a5067e3-660f-426c-99d2-3dfcdc90cf01<table><tr><td style="font-weight:bold;vertical-align:top;">comment</td><td style="vertical-align:top;">:</td><td><div></div></td></tr><tr><td style="font-weight:bold;vertical-align:top;">domain</td><td style="vertical-align:top;">:</td><td><div></div></td></tr><tr><td style="font-weight:bold;vertical-align:top;">expires</td><td style="vertical-align:top;">:</td><td><div></div></td></tr><tr><td style="font-weight:bold;vertical-align:top;">httponly</td><td style="vertical-align:top;">:</td><td><div></div></td></tr><tr><td style="font-weight:bold;vertical-align:top;">max-age</td><td style="vertical-align:top;">:</td><td><div></div></td></tr><tr><td style="font-weight:bold;vertical-align:top;">path</td><td style="vertical-align:top;">:</td><td><div></div></td></tr><tr><td style="font-weight:bold;vertical-align:top;">samesite</td><td style="vertical-align:top;">:</td><td><div></div></td></tr><tr><td style="font-weight:bold;vertical-align:top;">secure</td><td style="vertical-align:top;">:</td><td><div></div></td></tr><tr><td style="font-weight:bold;vertical-align:top;">version</td><td style="vertical-align:top;">:</td><td><div></div></td></tr></table></div></td></tr><tr><td style="font-weight:bold;vertical-align:top;">session_id_hw2_submission1</td><td style="vertical-align:top;">:</td><td><div>1:5929f3de-0d5d-4300-ab0d-df6b27a05f22<table><tr><td style="font-weight:bold;vertical-align:top;">comment</td><td style="vertical-align:top;">:</td><td><div></div></td></tr><tr><td style="font-weight:bold;vertical-align:top;">domain</td><td style="vertical-align:top;">:</td><td><div></div></td></tr><tr><td style="font-weight:bold;vertical-align:top;">expires</td><td style="vertical-align:top;">:</td><td><div></div></td></tr><tr><td style="font-weight:bold;vertical-align:top;">httponly</td><td style="vertical-align:top;">:</td><td><div></div></td></tr><tr><td style="font-weight:bold;vertical-align:top;">max-age</td><td style="vertical-align:top;">:</td><td><div></div></td></tr><tr><td style="font-weight:bold;vertical-align:top;">path</td><td style="vertical-align:top;">:</td><td><div></div></td></tr><tr><td style="font-weight:bold;vertical-align:top;">samesite</td><td style="vertical-align:top;">:</td><td><div></div></td></tr><tr><td style="font-weight:bold;vertical-align:top;">secure</td><td style="vertical-align:top;">:</td><td><div></div></td></tr><tr><td style="font-weight:bold;vertical-align:top;">version</td><td style="vertical-align:top;">:</td><td><div></div></td></tr></table></div></td></tr><tr><td style="font-weight:bold;vertical-align:top;">session_id_hw2_submission2</td><td style="vertical-align:top;">:</td><td><div>1:fb0db677-6ca0-48ab-8bfe-e87a35959915<table><tr><td style="font-weight:bold;vertical-align:top;">comment</td><td style="vertical-align:top;">:</td><td><div></div></td></tr><tr><td style="font-weight:bold;vertical-align:top;">domain</td><td style="vertical-align:top;">:</td><td><div></div></td></tr><tr><td style="font-weight:bold;vertical-align:top;">expires</td><td style="vertical-align:top;">:</td><td><div></div></td></tr><tr><td style="font-weight:bold;vertical-align:top;">httponly</td><td style="vertical-align:top;">:</td><td><div></div></td></tr><tr><td style="font-weight:bold;vertical-align:top;">max-age</td><td style="vertical-align:top;">:</td><td><div></div></td></tr><tr><td style="font-weight:bold;vertical-align:top;">path</td><td style="vertical-align:top;">:</td><td><div></div></td></tr><tr><td style="font-weight:bold;vertical-align:top;">samesite</td><td style="vertical-align:top;">:</td><td><div></div></td></tr><tr><td style="font-weight:bold;vertical-align:top;">secure</td><td style="vertical-align:top;">:</td><td><div></div></td></tr><tr><td style="font-weight:bold;vertical-align:top;">version</td><td style="vertical-align:top;">:</td><td><div></div></td></tr></table></div></td></tr><tr><td style="font-weight:bold;vertical-align:top;">session_id_hw2_submission3</td><td style="vertical-align:top;">:</td><td><div>1:5395105f-6804-4651-8594-a8fcbde3a693<table><tr><td style="font-weight:bold;vertical-align:top;">comment</td><td style="vertical-align:top;">:</td><td><div></div></td></tr><tr><td style="font-weight:bold;vertical-align:top;">domain</td><td style="vertical-align:top;">:</td><td><div></div></td></tr><tr><td style="font-weight:bold;vertical-align:top;">expires</td><td style="vertical-align:top;">:</td><td><div></div></td></tr><tr><td style="font-weight:bold;vertical-align:top;">httponly</td><td style="vertical-align:top;">:</td><td><div></div></td></tr><tr><td style="font-weight:bold;vertical-align:top;">max-age</td><td style="vertical-align:top;">:</td><td><div></div></td></tr><tr><td style="font-weight:bold;vertical-align:top;">path</td><td style="vertical-align:top;">:</td><td><div></div></td></tr><tr><td style="font-weight:bold;vertical-align:top;">samesite</td><td style="vertical-align:top;">:</td><td><div></div></td></tr><tr><td style="font-weight:bold;vertical-align:top;">secure</td><td style="vertical-align:top;">:</td><td><div></div></td></tr><tr><td style="font-weight:bold;vertical-align:top;">version</td><td style="vertical-align:top;">:</td><td><div></div></td></tr></table></div></td></tr><tr><td style="font-weight:bold;vertical-align:top;">session_id_hw2_submission4</td><td style="vertical-align:top;">:</td><td><div>1:75f83488-7a89-4b5d-8d08-e30f6754f9b6<table><tr><td style="font-weight:bold;vertical-align:top;">comment</td><td style="vertical-align:top;">:</td><td><div></div></td></tr><tr><td style="font-weight:bold;vertical-align:top;">domain</td><td style="vertical-align:top;">:</td><td><div></div></td></tr><tr><td style="font-weight:bold;vertical-align:top;">expires</td><td style="vertical-align:top;">:</td><td><div></div></td></tr><tr><td style="font-weight:bold;vertical-align:top;">httponly</td><td style="vertical-align:top;">:</td><td><div></div></td></tr><tr><td style="font-weight:bold;vertical-align:top;">max-age</td><td style="vertical-align:top;">:</td><td><div></div></td></tr><tr><td style="font-weight:bold;vertical-align:top;">path</td><td style="vertical-align:top;">:</td><td><div></div></td></tr><tr><td style="font-weight:bold;vertical-align:top;">samesite</td><td style="vertical-align:top;">:</td><td><div></div></td></tr><tr><td style="font-weight:bold;vertical-align:top;">secure</td><td style="vertical-align:top;">:</td><td><div></div></td></tr><tr><td style="font-weight:bold;vertical-align:top;">version</td><td style="vertical-align:top;">:</td><td><div></div></td></tr></table></div></td></tr><tr><td style="font-weight:bold;vertical-align:top;">session_id_hw2_submission5</td><td style="vertical-align:top;">:</td><td><div>1:4b580ff1-c5b8-4b94-8720-97e551d9f50b<table><tr><td style="font-weight:bold;vertical-align:top;">comment</td><td style="vertical-align:top;">:</td><td><div></div></td></tr><tr><td style="font-weight:bold;vertical-align:top;">domain</td><td style="vertical-align:top;">:</td><td><div></div></td></tr><tr><td style="font-weight:bold;vertical-align:top;">expires</td><td style="vertical-align:top;">:</td><td><div></div></td></tr><tr><td style="font-weight:bold;vertical-align:top;">httponly</td><td style="vertical-align:top;">:</td><td><div></div></td></tr><tr><td style="font-weight:bold;vertical-align:top;">max-age</td><td style="vertical-align:top;">:</td><td><div></div></td></tr><tr><td style="font-weight:bold;vertical-align:top;">path</td><td style="vertical-align:top;">:</td><td><div></div></td></tr><tr><td style="font-weight:bold;vertical-align:top;">samesite</td><td style="vertical-align:top;">:</td><td><div></div></td></tr><tr><td style="font-weight:bold;vertical-align:top;">secure</td><td style="vertical-align:top;">:</td><td><div></div></td></tr><tr><td style="font-weight:bold;vertical-align:top;">version</td><td style="vertical-align:top;">:</td><td><div></div></td></tr></table></div></td></tr><tr><td style="font-weight:bold;vertical-align:top;">session_id_hw3</td><td style="vertical-align:top;">:</td><td><div>5:e8a35929-a603-4f86-bb7f-3dffa0ed7768<table><tr><td style="font-weight:bold;vertical-align:top;">comment</td><td style="vertical-align:top;">:</td><td><div></div></td></tr><tr><td style="font-weight:bold;vertical-align:top;">domain</td><td style="vertical-align:top;">:</td><td><div></div></td></tr><tr><td style="font-weight:bold;vertical-align:top;">expires</td><td style="vertical-align:top;">:</td><td><div></div></td></tr><tr><td style="font-weight:bold;vertical-align:top;">httponly</td><td style="vertical-align:top;">:</td><td><div></div></td></tr><tr><td style="font-weight:bold;vertical-align:top;">max-age</td><td style="vertical-align:top;">:</td><td><div></div></td></tr><tr><td style="font-weight:bold;vertical-align:top;">path</td><td style="vertical-align:top;">:</td><td><div></div></td></tr><tr><td style="font-weight:bold;vertical-align:top;">samesite</td><td style="vertical-align:top;">:</td><td><div></div></td></tr><tr><td style="font-weight:bold;vertical-align:top;">secure</td><td style="vertical-align:top;">:</td><td><div></div></td></tr><tr><td style="font-weight:bold;vertical-align:top;">version</td><td style="vertical-align:top;">:</td><td><div></div></td></tr></table></div></td></tr><tr><td style="font-weight:bold;vertical-align:top;">session_id_hw3_ryan</td><td style="vertical-align:top;">:</td><td><div>1:ab270ebc-3e72-4efe-a2f2-06b3c4dddc74<table><tr><td style="font-weight:bold;vertical-align:top;">comment</td><td style="vertical-align:top;">:</td><td><div></div></td></tr><tr><td style="font-weight:bold;vertical-align:top;">domain</td><td style="vertical-align:top;">:</td><td><div></div></td></tr><tr><td style="font-weight:bold;vertical-align:top;">expires</td><td style="vertical-align:top;">:</td><td><div></div></td></tr><tr><td style="font-weight:bold;vertical-align:top;">httponly</td><td style="vertical-align:top;">:</td><td><div></div></td></tr><tr><td style="font-weight:bold;vertical-align:top;">max-age</td><td style="vertical-align:top;">:</td><td><div></div></td></tr><tr><td style="font-weight:bold;vertical-align:top;">path</td><td style="vertical-align:top;">:</td><td><div></div></td></tr><tr><td style="font-weight:bold;vertical-align:top;">samesite</td><td style="vertical-align:top;">:</td><td><div></div></td></tr><tr><td style="font-weight:bold;vertical-align:top;">secure</td><td style="vertical-align:top;">:</td><td><div></div></td></tr><tr><td style="font-weight:bold;vertical-align:top;">version</td><td style="vertical-align:top;">:</td><td><div></div></td></tr></table></div></td></tr><tr><td style="font-weight:bold;vertical-align:top;">session_id_hw3_submission</td><td style="vertical-align:top;">:</td><td><div>2:72c056aa-d500-480b-b207-538a4334ab7b<table><tr><td style="font-weight:bold;vertical-align:top;">comment</td><td style="vertical-align:top;">:</td><td><div></div></td></tr><tr><td style="font-weight:bold;vertical-align:top;">domain</td><td style="vertical-align:top;">:</td><td><div></div></td></tr><tr><td style="font-weight:bold;vertical-align:top;">expires</td><td style="vertical-align:top;">:</td><td><div></div></td></tr><tr><td style="font-weight:bold;vertical-align:top;">httponly</td><td style="vertical-align:top;">:</td><td><div></div></td></tr><tr><td style="font-weight:bold;vertical-align:top;">max-age</td><td style="vertical-align:top;">:</td><td><div></div></td></tr><tr><td style="font-weight:bold;vertical-align:top;">path</td><td style="vertical-align:top;">:</td><td><div></div></td></tr><tr><td style="font-weight:bold;vertical-align:top;">samesite</td><td style="vertical-align:top;">:</td><td><div></div></td></tr><tr><td style="font-weight:bold;vertical-align:top;">secure</td><td style="vertical-align:top;">:</td><td><div></div></td></tr><tr><td style="font-weight:bold;vertical-align:top;">version</td><td style="vertical-align:top;">:</td><td><div></div></td></tr></table></div></td></tr><tr><td style="font-weight:bold;vertical-align:top;">session_id_hw_submission_1</td><td style="vertical-align:top;">:</td><td><div>1:c064bf17-724f-449b-8abb-7d6931560a8f<table><tr><td style="font-weight:bold;vertical-align:top;">comment</td><td style="vertical-align:top;">:</td><td><div></div></td></tr><tr><td style="font-weight:bold;vertical-align:top;">domain</td><td style="vertical-align:top;">:</td><td><div></div></td></tr><tr><td style="font-weight:bold;vertical-align:top;">expires</td><td style="vertical-align:top;">:</td><td><div></div></td></tr><tr><td style="font-weight:bold;vertical-align:top;">httponly</td><td style="vertical-align:top;">:</td><td><div></div></td></tr><tr><td style="font-weight:bold;vertical-align:top;">max-age</td><td style="vertical-align:top;">:</td><td><div></div></td></tr><tr><td style="font-weight:bold;vertical-align:top;">path</td><td style="vertical-align:top;">:</td><td><div></div></td></tr><tr><td style="font-weight:bold;vertical-align:top;">samesite</td><td style="vertical-align:top;">:</td><td><div></div></td></tr><tr><td style="font-weight:bold;vertical-align:top;">secure</td><td style="vertical-align:top;">:</td><td><div></div></td></tr><tr><td style="font-weight:bold;vertical-align:top;">version</td><td style="vertical-align:top;">:</td><td><div></div></td></tr></table></div></td></tr><tr><td style="font-weight:bold;vertical-align:top;">session_id_movieswithvue3</td><td style="vertical-align:top;">:</td><td><div>127.0.0.1-40e81a51-38b3-49e0-83da-2c3dcee8d4fe<table><tr><td style="font-weight:bold;vertical-align:top;">comment</td><td style="vertical-align:top;">:</td><td><div></div></td></tr><tr><td style="font-weight:bold;vertical-align:top;">domain</td><td style="vertical-align:top;">:</td><td><div></div></td></tr><tr><td style="font-weight:bold;vertical-align:top;">expires</td><td style="vertical-align:top;">:</td><td><div></div></td></tr><tr><td style="font-weight:bold;vertical-align:top;">httponly</td><td style="vertical-align:top;">:</td><td><div></div></td></tr><tr><td style="font-weight:bold;vertical-align:top;">max-age</td><td style="vertical-align:top;">:</td><td><div></div></td></tr><tr><td style="font-weight:bold;vertical-align:top;">path</td><td style="vertical-align:top;">:</td><td><div></div></td></tr><tr><td style="font-weight:bold;vertical-align:top;">samesite</td><td style="vertical-align:top;">:</td><td><div></div></td></tr><tr><td style="font-weight:bold;vertical-align:top;">secure</td><td style="vertical-align:top;">:</td><td><div></div></td></tr><tr><td style="font-weight:bold;vertical-align:top;">version</td><td style="vertical-align:top;">:</td><td><div></div></td></tr></table></div></td></tr><tr><td style="font-weight:bold;vertical-align:top;">session_id_ratemyresume</td><td style="vertical-align:top;">:</td><td><div>1:8bf3e264-654a-4090-a25d-9bb39951efb3<table><tr><td style="font-weight:bold;vertical-align:top;">comment</td><td style="vertical-align:top;">:</td><td><div></div></td></tr><tr><td style="font-weight:bold;vertical-align:top;">domain</td><td style="vertical-align:top;">:</td><td><div></div></td></tr><tr><td style="font-weight:bold;vertical-align:top;">expires</td><td style="vertical-align:top;">:</td><td><div></div></td></tr><tr><td style="font-weight:bold;vertical-align:top;">httponly</td><td style="vertical-align:top;">:</td><td><div></div></td></tr><tr><td style="font-weight:bold;vertical-align:top;">max-age</td><td style="vertical-align:top;">:</td><td><div></div></td></tr><tr><td style="font-weight:bold;vertical-align:top;">path</td><td style="vertical-align:top;">:</td><td><div></div></td></tr><tr><td style="font-weight:bold;vertical-align:top;">samesite</td><td style="vertical-align:top;">:</td><td><div></div></td></tr><tr><td style="font-weight:bold;vertical-align:top;">secure</td><td style="vertical-align:top;">:</td><td><div></div></td></tr><tr><td style="font-weight:bold;vertical-align:top;">version</td><td style="vertical-align:top;">:</td><td><div></div></td></tr></table></div></td></tr><tr><td style="font-weight:bold;vertical-align:top;">session_id_resumerater</td><td style="vertical-align:top;">:</td><td><div>1:6e8b9782-9ad7-42da-ad70-e36e526f6bd3<table><tr><td style="font-weight:bold;vertical-align:top;">comment</td><td style="vertical-align:top;">:</td><td><div></div></td></tr><tr><td style="font-weight:bold;vertical-align:top;">domain</td><td style="vertical-align:top;">:</td><td><div></div></td></tr><tr><td style="font-weight:bold;vertical-align:top;">expires</td><td style="vertical-align:top;">:</td><td><div></div></td></tr><tr><td style="font-weight:bold;vertical-align:top;">httponly</td><td style="vertical-align:top;">:</td><td><div></div></td></tr><tr><td style="font-weight:bold;vertical-align:top;">max-age</td><td style="vertical-align:top;">:</td><td><div></div></td></tr><tr><td style="font-weight:bold;vertical-align:top;">path</td><td style="vertical-align:top;">:</td><td><div></div></td></tr><tr><td style="font-weight:bold;vertical-align:top;">samesite</td><td style="vertical-align:top;">:</td><td><div></div></td></tr><tr><td style="font-weight:bold;vertical-align:top;">secure</td><td style="vertical-align:top;">:</td><td><div></div></td></tr><tr><td style="font-weight:bold;vertical-align:top;">version</td><td style="vertical-align:top;">:</td><td><div></div></td></tr></table></div></td></tr><tr><td style="font-weight:bold;vertical-align:top;">session_id_start</td><td style="vertical-align:top;">:</td><td><div>1:65813e45-f45e-49f3-a7a6-8010ca38cd04<table><tr><td style="font-weight:bold;vertical-align:top;">comment</td><td style="vertical-align:top;">:</td><td><div></div></td></tr><tr><td style="font-weight:bold;vertical-align:top;">domain</td><td style="vertical-align:top;">:</td><td><div></div></td></tr><tr><td style="font-weight:bold;vertical-align:top;">expires</td><td style="vertical-align:top;">:</td><td><div></div></td></tr><tr><td style="font-weight:bold;vertical-align:top;">httponly</td><td style="vertical-align:top;">:</td><td><div></div></td></tr><tr><td style="font-weight:bold;vertical-align:top;">max-age</td><td style="vertical-align:top;">:</td><td><div></div></td></tr><tr><td style="font-weight:bold;vertical-align:top;">path</td><td style="vertical-align:top;">:</td><td><div></div></td></tr><tr><td style="font-weight:bold;vertical-align:top;">samesite</td><td style="vertical-align:top;">:</td><td><div></div></td></tr><tr><td style="font-weight:bold;vertical-align:top;">secure</td><td style="vertical-align:top;">:</td><td><div></div></td></tr><tr><td style="font-weight:bold;vertical-align:top;">version</td><td style="vertical-align:top;">:</td><td><div></div></td></tr></table></div></td></tr><tr><td style="font-weight:bold;vertical-align:top;">session_id_welcome</td><td style="vertical-align:top;">:</td><td><div>127.0.0.1-95172fdd-dbad-4edb-9746-b22443974bd9<table><tr><td style="font-weight:bold;vertical-align:top;">comment</td><td style="vertical-align:top;">:</td><td><div></div></td></tr><tr><td style="font-weight:bold;vertical-align:top;">domain</td><td style="vertical-align:top;">:</td><td><div></div></td></tr><tr><td style="font-weight:bold;vertical-align:top;">expires</td><td style="vertical-align:top;">:</td><td><div></div></td></tr><tr><td style="font-weight:bold;vertical-align:top;">httponly</td><td style="vertical-align:top;">:</td><td><div></div></td></tr><tr><td style="font-weight:bold;vertical-align:top;">max-age</td><td style="vertical-align:top;">:</td><td><div></div></td></tr><tr><td style="font-weight:bold;vertical-align:top;">path</td><td style="vertical-align:top;">:</td><td><div></div></td></tr><tr><td style="font-weight:bold;vertical-align:top;">samesite</td><td style="vertical-align:top;">:</td><td><div></div></td></tr><tr><td style="font-weight:bold;vertical-align:top;">secure</td><td style="vertical-align:top;">:</td><td><div></div></td></tr><tr><td style="font-weight:bold;vertical-align:top;">version</td><td style="vertical-align:top;">:</td><td><div></div></td></tr></table></div></td></tr></table></div></td></tr><tr><td style="font-weight:bold;vertical-align:top;">env</td><td style="vertical-align:top;">:</td><td><div><table><tr><td style="font-weight:bold;vertical-align:top;">HTTP_ACCEPT</td><td style="vertical-align:top;">:</td><td><div>text/html,application/xhtml+xml,application/xml;q=0.9,image/webp,image/apng,*/*;q=0.8</div></td></tr><tr><td style="font-weight:bold;vertical-align:top;">HTTP_ACCEPT_ENCODING</td><td style="vertical-align:top;">:</td><td><div>gzip, deflate, br</div></td></tr><tr><td style="font-weight:bold;vertical-align:top;">HTTP_ACCEPT_LANGUAGE</td><td style="vertical-align:top;">:</td><td><div>en-US,en;q=0.9,zh-CN;q=0.8,zh;q=0.7</div></td></tr><tr><td style="font-weight:bold;vertical-align:top;">HTTP_CACHE_CONTROL</td><td style="vertical-align:top;">:</td><td><div>no-cache</div></td></tr><tr><td style="font-weight:bold;vertical-align:top;">HTTP_CONNECTION</td><td style="vertical-align:top;">:</td><td><div>keep-alive</div></td></tr><tr><td style="font-weight:bold;vertical-align:top;">HTTP_COOKIE</td><td style="vertical-align:top;">:</td><td><div>session_id_start=&quot;1:65813e45-f45e-49f3-a7a6-8010ca38cd04&quot;; session_id_hw2=&quot;3:1a5067e3-660f-426c-99d2-3dfcdc90cf01&quot;; session_id_hw2_submission1=&quot;1:5929f3de-0d5d-4300-ab0d-df6b27a05f22&quot;; session_id_hw2_submission2=&quot;1:fb0db677-6ca0-48ab-8bfe-e87a35959915&quot;; session_id_hw2_submission3=&quot;1:5395105f-6804-4651-8594-a8fcbde3a693&quot;; session_id_hw2_submission4=&quot;1:75f83488-7a89-4b5d-8d08-e30f6754f9b6&quot;; session_id_hw2_submission5=&quot;1:4b580ff1-c5b8-4b94-8720-97e551d9f50b&quot;; session_id_movieswithvue3=127.0.0.1-40e81a51-38b3-49e0-83da-2c3dcee8d4fe; session_id_hw3=&quot;5:e8a35929-a603-4f86-bb7f-3dffa0ed7768&quot;; session_id_hw3_ryan=&quot;1:ab270ebc-3e72-4efe-a2f2-06b3c4dddc74&quot;; session_id_hw_submission_1=&quot;1:c064bf17-724f-449b-8abb-7d6931560a8f&quot;; session_id_hw3_submission=&quot;2:72c056aa-d500-480b-b207-538a4334ab7b&quot;; session_id_admin=127.0.0.1-551be2b0-5d36-416e-9080-6cda1a688a70; session_id_resumerater=&quot;1:6e8b9782-9ad7-42da-ad70-e36e526f6bd3&quot;; session_id_ratemyresume=&quot;1:8bf3e264-654a-4090-a25d-9bb39951efb3&quot;; session_id_welcome=127.0.0.1-95172fdd-dbad-4edb-9746-b22443974bd9</div></td></tr><tr><td style="font-weight:bold;vertical-align:top;">HTTP_HOST</td><td style="vertical-align:top;">:</td><td><div>127.0.0.1:8000</div></td></tr><tr><td style="font-weight:bold;vertical-align:top;">HTTP_PRAGMA</td><td style="vertical-align:top;">:</td><td><div>no-cache</div></td></tr><tr><td style="font-weight:bold;vertical-align:top;">HTTP_REFERER</td><td style="vertical-align:top;">:</td><td><div>http://127.0.0.1:8000/ratemyresume/default/resume_reviews</div></td></tr><tr><td style="font-weight:bold;vertical-align:top;">HTTP_UPGRADE_INSECURE_REQUESTS</td><td style="vertical-align:top;">:</td><td><div>1</div></td></tr><tr><td style="font-weight:bold;vertical-align:top;">HTTP_USER_AGENT</td><td style="vertical-align:top;">:</td><td><div>Mozilla/5.0 (Windows NT 10.0; Win64; x64) AppleWebKit/537.36 (KHTML, like Gecko) Chrome/71.0.3578.80 Safari/537.36</div></td></tr><tr><td style="font-weight:bold;vertical-align:top;">PATH_INFO</td><td style="vertical-align:top;">:</td><td><div>/ratemyresume/default/hub</div></td></tr><tr><td style="font-weight:bold;vertical-align:top;">QUERY_STRING</td><td style="vertical-align:top;">:</td><td><div></div></td></tr><tr><td style="font-weight:bold;vertical-align:top;">REMOTE_ADDR</td><td style="vertical-align:top;">:</td><td><div>127.0.0.1</div></td></tr><tr><td style="font-weight:bold;vertical-align:top;">REMOTE_PORT</td><td style="vertical-align:top;">:</td><td><div>50847</div></td></tr><tr><td style="font-weight:bold;vertical-align:top;">REQUEST_METHOD</td><td style="vertical-align:top;">:</td><td><div>GET</div></td></tr><tr><td style="font-weight:bold;vertical-align:top;">SCRIPT_NAME</td><td style="vertical-align:top;">:</td><td><div></div></td></tr><tr><td style="font-weight:bold;vertical-align:top;">SERVER_NAME</td><td style="vertical-align:top;">:</td><td><div>DESKTOP-MN9PC3I</div></td></tr><tr><td style="font-weight:bold;vertical-align:top;">SERVER_PORT</td><td style="vertical-align:top;">:</td><td><div>8000</div></td></tr><tr><td style="font-weight:bold;vertical-align:top;">SERVER_PROTOCOL</td><td style="vertical-align:top;">:</td><td><div>HTTP/1.1</div></td></tr><tr><td style="font-weight:bold;vertical-align:top;">SERVER_SOFTWARE</td><td style="vertical-align:top;">:</td><td><div>Rocket 1.2.6</div></td></tr><tr><td style="font-weight:bold;vertical-align:top;">app_folders</td><td style="vertical-align:top;">:</td><td><div>set([&#x27;C:\\\\Users\\\\unuse\\\\OneDrive\\\\Documents\\\\CMPS 183\\\\web2py\\\\applications\\\\ratemyresume\\\\&#x27;, &#x27;C:\\\\Users\\\\unuse\\\\OneDrive\\\\Documents\\\\CMPS 183\\\\web2py\\\\applications\\\\admin\\\\&#x27;, &#x27;C:\\\\Users\\\\unuse\\\\OneDrive\\\\Documents\\\\CMPS 183\\\\web2py\\\\applications\\\\welcome\\\\&#x27;])</div></td></tr><tr><td style="font-weight:bold;vertical-align:top;">applications_parent</td><td style="vertical-align:top;">:</td><td><div>C:\\Users\\unuse\\OneDrive\\Documents\\CMPS 183\\web2py</div></td></tr><tr><td style="font-weight:bold;vertical-align:top;">cmd_args</td><td style="vertical-align:top;">:</td><td><div><table></table></div></td></tr><tr><td style="font-weight:bold;vertical-align:top;">cmd_options</td><td style="vertical-align:top;">:</td><td><div>&lt;Values at 0x4deb448: {&#x27;verbose&#x27;: False, &#x27;ip&#x27;: &#x27;127.0.0.1&#x27;, &#x27;debuglevel&#x27;: 30, &#x27;with_scheduler&#x27;: False, &#x27;shutdown_timeout&#x27;: 5, &#x27;taskbar&#x27;: False, &#x27;with_coverage&#x27;: False, &#x27;pid_filename&#x27;: &#x27;httpserver.pid&#x27;, &#x27;maxthreads&#x27;: None, &#x27;softcron&#x27;: False, &#x27;server_name&#x27;: &#x27;DESKTOP-MN9PC3I&#x27;, &#x27;bpython&#x27;: False, &#x27;nogui&#x27;: False, &#x27;port&#x27;: 8000, &#x27;print_errors&#x27;: False, &#x27;extcron&#x27;: False, &#x27;runcron&#x27;: False, &#x27;run_system_tests&#x27;: False, &#x27;test&#x27;: None, &#x27;folder&#x27;: &#x27;C:\\\\Users\\\\unuse\\\\OneDrive\\\\Documents\\\\CMPS 183\\\\web2py&#x27;, &#x27;config&#x27;: &#x27;&#x27;, &#x27;minthreads&#x27;: None, &#x27;shell&#x27;: None, &#x27;run&#x27;: &#x27;&#x27;, &#x27;log_filename&#x27;: &#x27;httpserver.log&#x27;, &#x27;profiler_dir&#x27;: None, &#x27;args&#x27;: [&#x27;&#x27;], &#x27;socket_timeout&#x27;: 5, &#x27;ssl_ca_certificate&#x27;: None, &#x27;scheduler&#x27;: None, &#x27;interfaces&#x27;: None, &#x27;ssl_private_key&#x27;: &#x27;&#x27;, &#x27;gae&#x27;: None, &#x27;password&#x27;: &#x27;******&#x27;, &#x27;request_queue_size&#x27;: 5, &#x27;ssl_certificate&#x27;: &#x27;&#x27;, &#x27;cronjob&#x27;: False, &#x27;numthreads&#x27;: None, &#x27;quiet&#x27;: False, &#x27;import_models&#x27;: False, &#x27;timeout&#x27;: 10, &#x27;plain&#x27;: False, &#x27;nobanner&#x27;: False}&gt;</div></td></tr><tr><td style="font-weight:bold;vertical-align:top;">db_sessions</td><td style="vertical-align:top;">:</td><td><div>set([&#x27;ratemyresume&#x27;])</div></td></tr><tr><td style="font-weight:bold;vertical-align:top;">debugging</td><td style="vertical-align:top;">:</td><td><div>False</div></td></tr><tr><td style="font-weight:bold;vertical-align:top;">gluon_parent</td><td style="vertical-align:top;">:</td><td><div>C:\\Users\\unuse\\OneDrive\\Documents\\CMPS 183\\web2py</div></td></tr><tr><td style="font-weight:bold;vertical-align:top;">http_accept</td><td style="vertical-align:top;">:</td><td><div>text/html,application/xhtml+xml,application/xml;q=0.9,image/webp,image/apng,*/*;q=0.8</div></td></tr><tr><td style="font-weight:bold;vertical-align:top;">http_accept_encoding</td><td style="vertical-align:top;">:</td><td><div>gzip, deflate, br</div></td></tr><tr><td style="font-weight:bold;vertical-align:top;">http_accept_language</td><td style="vertical-align:top;">:</td><td><div>en-US,en;q=0.9,zh-CN;q=0.8,zh;q=0.7</div></td></tr><tr><td style="font-weight:bold;vertical-align:top;">http_cache_control</td><td style="vertical-align:top;">:</td><td><div>no-cache</div></td></tr><tr><td style="font-weight:bold;vertical-align:top;">http_connection</td><td style="vertical-align:top;">:</td><td><div>keep-alive</div></td></tr><tr><td style="font-weight:bold;vertical-align:top;">http_cookie</td><td style="vertical-align:top;">:</td><td><div>session_id_start=&quot;1:65813e45-f45e-49f3-a7a6-8010ca38cd04&quot;; session_id_hw2=&quot;3:1a5067e3-660f-426c-99d2-3dfcdc90cf01&quot;; session_id_hw2_submission1=&quot;1:5929f3de-0d5d-4300-ab0d-df6b27a05f22&quot;; session_id_hw2_submission2=&quot;1:fb0db677-6ca0-48ab-8bfe-e87a35959915&quot;; session_id_hw2_submission3=&quot;1:5395105f-6804-4651-8594-a8fcbde3a693&quot;; session_id_hw2_submission4=&quot;1:75f83488-7a89-4b5d-8d08-e30f6754f9b6&quot;; session_id_hw2_submission5=&quot;1:4b580ff1-c5b8-4b94-8720-97e551d9f50b&quot;; session_id_movieswithvue3=127.0.0.1-40e81a51-38b3-49e0-83da-2c3dcee8d4fe; session_id_hw3=&quot;5:e8a35929-a603-4f86-bb7f-3dffa0ed7768&quot;; session_id_hw3_ryan=&quot;1:ab270ebc-3e72-4efe-a2f2-06b3c4dddc74&quot;; session_id_hw_submission_1=&quot;1:c064bf17-724f-449b-8abb-7d6931560a8f&quot;; session_id_hw3_submission=&quot;2:72c056aa-d500-480b-b207-538a4334ab7b&quot;; session_id_admin=127.0.0.1-551be2b0-5d36-416e-9080-6cda1a688a70; session_id_resumerater=&quot;1:6e8b9782-9ad7-42da-ad70-e36e526f6bd3&quot;; session_id_ratemyresume=&quot;1:8bf3e264-654a-4090-a25d-9bb39951efb3&quot;; session_id_welcome=127.0.0.1-95172fdd-dbad-4edb-9746-b22443974bd9</div></td></tr><tr><td style="font-weight:bold;vertical-align:top;">http_host</td><td style="vertical-align:top;">:</td><td><div>127.0.0.1:8000</div></td></tr><tr><td style="font-weight:bold;vertical-align:top;">http_pragma</td><td style="vertical-align:top;">:</td><td><div>no-cache</div></td></tr><tr><td style="font-weight:bold;vertical-align:top;">http_referer</td><td style="vertical-align:top;">:</td><td><div>http://127.0.0.1:8000/ratemyresume/default/resume_reviews</div></td></tr><tr><td style="font-weight:bold;vertical-align:top;">http_upgrade_insecure_requests</td><td style="vertical-align:top;">:</td><td><div>1</div></td></tr><tr><td style="font-weight:bold;vertical-align:top;">http_user_agent</td><td style="vertical-align:top;">:</td><td><div>Mozilla/5.0 (Windows NT 10.0; Win64; x64) AppleWebKit/537.36 (KHTML, like Gecko) Chrome/71.0.3578.80 Safari/537.36</div></td></tr><tr><td style="font-weight:bold;vertical-align:top;">is_jython</td><td style="vertical-align:top;">:</td><td><div>False</div></td></tr><tr><td style="font-weight:bold;vertical-align:top;">is_py2</td><td style="vertical-align:top;">:</td><td><div>True</div></td></tr><tr><td style="font-weight:bold;vertical-align:top;">is_pypy</td><td style="vertical-align:top;">:</td><td><div>False</div></td></tr><tr><td style="font-weight:bold;vertical-align:top;">is_source</td><td style="vertical-align:top;">:</td><td><div>True</div></td></tr><tr><td style="font-weight:bold;vertical-align:top;">local_hosts</td><td style="vertical-align:top;">:</td><td><div><table><tr><td><div>DESKTOP-MN9PC3I</div></td></tr><tr><td><div>::ffff:127.0.0.1</div></td></tr><tr><td><div>::1</div></td></tr><tr><td><div>DESKTOP-MN9PC3I.ucsc.edu</div></td></tr><tr><td><div>169.233.159.77</div></td></tr><tr><td><div>fe80::84e6:6716:5b3f:b3b1%2</div></td></tr><tr><td><div>127.0.0.1</div></td></tr></table></div></td></tr><tr><td style="font-weight:bold;vertical-align:top;">path_info</td><td style="vertical-align:top;">:</td><td><div>/ratemyresume/default/hub</div></td></tr><tr><td style="font-weight:bold;vertical-align:top;">query_string</td><td style="vertical-align:top;">:</td><td><div></div></td></tr><tr><td style="font-weight:bold;vertical-align:top;">remote_addr</td><td style="vertical-align:top;">:</td><td><div>127.0.0.1</div></td></tr><tr><td style="font-weight:bold;vertical-align:top;">remote_port</td><td style="vertical-align:top;">:</td><td><div>50847</div></td></tr><tr><td style="font-weight:bold;vertical-align:top;">request_method</td><td style="vertical-align:top;">:</td><td><div>GET</div></td></tr><tr><td style="font-weight:bold;vertical-align:top;">request_uri</td><td style="vertical-align:top;">:</td><td><div>/ratemyresume/default/hub</div></td></tr><tr><td style="font-weight:bold;vertical-align:top;">script_name</td><td style="vertical-align:top;">:</td><td><div></div></td></tr><tr><td style="font-weight:bold;vertical-align:top;">server_name</td><td style="vertical-align:top;">:</td><td><div>DESKTOP-MN9PC3I</div></td></tr><tr><td style="font-weight:bold;vertical-align:top;">server_port</td><td style="vertical-align:top;">:</td><td><div>8000</div></td></tr><tr><td style="font-weight:bold;vertical-align:top;">server_protocol</td><td style="vertical-align:top;">:</td><td><div>HTTP/1.1</div></td></tr><tr><td style="font-weight:bold;vertical-align:top;">server_software</td><td style="vertical-align:top;">:</td><td><div>Rocket 1.2.6</div></td></tr><tr><td style="font-weight:bold;vertical-align:top;">web2py_path</td><td style="vertical-align:top;">:</td><td><div>C:\\Users\\unuse\\OneDrive\\Documents\\CMPS 183\\web2py</div></td></tr><tr><td style="font-weight:bold;vertical-align:top;">web2py_version</td><td style="vertical-align:top;">:</td><td><div>2.17.2-stable+timestamp.2018.10.06.18.54.02</div></td></tr><tr><td style="font-weight:bold;vertical-align:top;">wsgi.errors</td><td style="vertical-align:top;">:</td><td><div>&lt;open file &#x27;&lt;stderr&gt;&#x27;, mode &#x27;w&#x27; at 0x000000000341B150&gt;</div></td></tr><tr><td style="font-weight:bold;vertical-align:top;">wsgi.file_wrapper</td><td style="vertical-align:top;">:</td><td><div>&lt;class wsgiref.util.FileWrapper at 0x0000000004D5A948&gt;</div></td></tr><tr><td style="font-weight:bold;vertical-align:top;">wsgi.input</td><td style="vertical-align:top;">:</td><td><div>&lt;socket._fileobject object at 0x00000000048F6A98&gt;</div></td></tr><tr><td style="font-weight:bold;vertical-align:top;">wsgi.multiprocess</td><td style="vertical-align:top;">:</td><td><div>False</div></td></tr><tr><td style="font-weight:bold;vertical-align:top;">wsgi.multithread</td><td style="vertical-align:top;">:</td><td><div>True</div></td></tr><tr><td style="font-weight:bold;vertical-align:top;">wsgi.run_once</td><td style="vertical-align:top;">:</td><td><div>False</div></td></tr><tr><td style="font-weight:bold;vertical-align:top;">wsgi.url_scheme</td><td style="vertical-align:top;">:</td><td><div>http</div></td></tr><tr><td style="font-weight:bold;vertical-align:top;">wsgi.version</td><td style="vertical-align:top;">:</td><td><div><table><tr><td><div>1</div></td></tr><tr><td><div>0</div></td></tr></table></div></td></tr><tr><td style="font-weight:bold;vertical-align:top;">wsgi_errors</td><td style="vertical-align:top;">:</td><td><div>&lt;open file &#x27;&lt;stderr&gt;&#x27;, mode &#x27;w&#x27; at 0x000000000341B150&gt;</div></td></tr><tr><td style="font-weight:bold;vertical-align:top;">wsgi_file_wrapper</td><td style="vertical-align:top;">:</td><td><div>&lt;class wsgiref.util.FileWrapper at 0x0000000004D5A948&gt;</div></td></tr><tr><td style="font-weight:bold;vertical-align:top;">wsgi_input</td><td style="vertical-align:top;">:</td><td><div>&lt;socket._fileobject object at 0x00000000048F6A98&gt;</div></td></tr><tr><td style="font-weight:bold;vertical-align:top;">wsgi_multiprocess</td><td style="vertical-align:top;">:</td><td><div>False</div></td></tr><tr><td style="font-weight:bold;vertical-align:top;">wsgi_multithread</td><td style="vertical-align:top;">:</td><td><div>True</div></td></tr><tr><td style="font-weight:bold;vertical-align:top;">wsgi_run_once</td><td style="vertical-align:top;">:</td><td><div>False</div></td></tr><tr><td style="font-weight:bold;vertical-align:top;">wsgi_url_scheme</td><td style="vertical-align:top;">:</td><td><div>http</div></td></tr><tr><td style="font-weight:bold;vertical-align:top;">wsgi_version</td><td style="vertical-align:top;">:</td><td><div><table><tr><td><div>1</div></td></tr><tr><td><div>0</div></td></tr></table></div></td></tr></table></div></td></tr><tr><td style="font-weight:bold;vertical-align:top;">extension</td><td style="vertical-align:top;">:</td><td><div>html</div></td></tr><tr><td style="font-weight:bold;vertical-align:top;">folder</td><td style="vertical-align:top;">:</td><td><div>C:\\Users\\unuse\\OneDrive\\Documents\\CMPS 183\\web2py\\applications\\ratemyresume\\</div></td></tr><tr><td style="font-weight:bold;vertical-align:top;">function</td><td style="vertical-align:top;">:</td><td><div>hub</div></td></tr><tr><td style="font-weight:bold;vertical-align:top;">global_settings</td><td style="vertical-align:top;">:</td><td><div><table><tr><td style="font-weight:bold;vertical-align:top;">app_folders</td><td style="vertical-align:top;">:</td><td><div>set([&#x27;C:\\\\Users\\\\unuse\\\\OneDrive\\\\Documents\\\\CMPS 183\\\\web2py\\\\applications\\\\ratemyresume\\\\&#x27;, &#x27;C:\\\\Users\\\\unuse\\\\OneDrive\\\\Documents\\\\CMPS 183\\\\web2py\\\\applications\\\\admin\\\\&#x27;, &#x27;C:\\\\Users\\\\unuse\\\\OneDrive\\\\Documents\\\\CMPS 183\\\\web2py\\\\applications\\\\welcome\\\\&#x27;])</div></td></tr><tr><td style="font-weight:bold;vertical-align:top;">applications_parent</td><td style="vertical-align:top;">:</td><td><div>C:\\Users\\unuse\\OneDrive\\Documents\\CMPS 183\\web2py</div></td></tr><tr><td style="font-weight:bold;vertical-align:top;">cmd_args</td><td style="vertical-align:top;">:</td><td><div><table></table></div></td></tr><tr><td style="font-weight:bold;vertical-align:top;">cmd_options</td><td style="vertical-align:top;">:</td><td><div>&lt;Values at 0x4deb448: {&#x27;verbose&#x27;: False, &#x27;ip&#x27;: &#x27;127.0.0.1&#x27;, &#x27;debuglevel&#x27;: 30, &#x27;with_scheduler&#x27;: False, &#x27;shutdown_timeout&#x27;: 5, &#x27;taskbar&#x27;: False, &#x27;with_coverage&#x27;: False, &#x27;pid_filename&#x27;: &#x27;httpserver.pid&#x27;, &#x27;maxthreads&#x27;: None, &#x27;softcron&#x27;: False, &#x27;server_name&#x27;: &#x27;DESKTOP-MN9PC3I&#x27;, &#x27;bpython&#x27;: False, &#x27;nogui&#x27;: False, &#x27;port&#x27;: 8000, &#x27;print_errors&#x27;: False, &#x27;extcron&#x27;: False, &#x27;runcron&#x27;: False, &#x27;run_system_tests&#x27;: False, &#x27;test&#x27;: None, &#x27;folder&#x27;: &#x27;C:\\\\Users\\\\unuse\\\\OneDrive\\\\Documents\\\\CMPS 183\\\\web2py&#x27;, &#x27;config&#x27;: &#x27;&#x27;, &#x27;minthreads&#x27;: None, &#x27;shell&#x27;: None, &#x27;run&#x27;: &#x27;&#x27;, &#x27;log_filename&#x27;: &#x27;httpserver.log&#x27;, &#x27;profiler_dir&#x27;: None, &#x27;args&#x27;: [&#x27;&#x27;], &#x27;socket_timeout&#x27;: 5, &#x27;ssl_ca_certificate&#x27;: None, &#x27;scheduler&#x27;: None, &#x27;interfaces&#x27;: None, &#x27;ssl_private_key&#x27;: &#x27;&#x27;, &#x27;gae&#x27;: None, &#x27;password&#x27;: &#x27;******&#x27;, &#x27;request_queue_size&#x27;: 5, &#x27;ssl_certificate&#x27;: &#x27;&#x27;, &#x27;cronjob&#x27;: False, &#x27;numthreads&#x27;: None, &#x27;quiet&#x27;: False, &#x27;import_models&#x27;: False, &#x27;timeout&#x27;: 10, &#x27;plain&#x27;: False, &#x27;nobanner&#x27;: False}&gt;</div></td></tr><tr><td style="font-weight:bold;vertical-align:top;">db_sessions</td><td style="vertical-align:top;">:</td><td><div>set([&#x27;ratemyresume&#x27;])</div></td></tr><tr><td style="font-weight:bold;vertical-align:top;">debugging</td><td style="vertical-align:top;">:</td><td><div>False</div></td></tr><tr><td style="font-weight:bold;vertical-align:top;">gluon_parent</td><td style="vertical-align:top;">:</td><td><div>C:\\Users\\unuse\\OneDrive\\Documents\\CMPS 183\\web2py</div></td></tr><tr><td style="font-weight:bold;vertical-align:top;">is_jython</td><td style="vertical-align:top;">:</td><td><div>False</div></td></tr><tr><td style="font-weight:bold;vertical-align:top;">is_py2</td><td style="vertical-align:top;">:</td><td><div>True</div></td></tr><tr><td style="font-weight:bold;vertical-align:top;">is_pypy</td><td style="vertical-align:top;">:</td><td><div>False</div></td></tr><tr><td style="font-weight:bold;vertical-align:top;">is_source</td><td style="vertical-align:top;">:</td><td><div>True</div></td></tr><tr><td style="font-weight:bold;vertical-align:top;">local_hosts</td><td style="vertical-align:top;">:</td><td><div><table><tr><td><div>DESKTOP-MN9PC3I</div></td></tr><tr><td><div>::ffff:127.0.0.1</div></td></tr><tr><td><div>::1</div></td></tr><tr><td><div>DESKTOP-MN9PC3I.ucsc.edu</div></td></tr><tr><td><div>169.233.159.77</div></td></tr><tr><td><div>fe80::84e6:6716:5b3f:b3b1%2</div></td></tr><tr><td><div>127.0.0.1</div></td></tr></table></div></td></tr><tr><td style="font-weight:bold;vertical-align:top;">web2py_version</td><td style="vertical-align:top;">:</td><td><div>2.17.2-stable+timestamp.2018.10.06.18.54.02</div></td></tr></table></div></td></tr><tr><td style="font-weight:bold;vertical-align:top;">is_https</td><td style="vertical-align:top;">:</td><td><div>False</div></td></tr><tr><td style="font-weight:bold;vertical-align:top;">is_local</td><td style="vertical-align:top;">:</td><td><div>True</div></td></tr><tr><td style="font-weight:bold;vertical-align:top;">is_restful</td><td style="vertical-align:top;">:</td><td><div>False</div></td></tr><tr><td style="font-weight:bold;vertical-align:top;">is_scheduler</td><td style="vertical-align:top;">:</td><td><div>False</div></td></tr><tr><td style="font-weight:bold;vertical-align:top;">is_shell</td><td style="vertical-align:top;">:</td><td><div>False</div></td></tr><tr><td style="font-weight:bold;vertical-align:top;">method</td><td style="vertical-align:top;">:</td><td><div>GET</div></td></tr><tr><td style="font-weight:bold;vertical-align:top;">now</td><td style="vertical-align:top;">:</td><td><div>datetime.datetime(2018, 12, 6, 20, 28, 53, 381000)</div></td></tr><tr><td style="font-weight:bold;vertical-align:top;">raw_args</td><td style="vertical-align:top;">:</td><td><div></div></td></tr><tr><td style="font-weight:bold;vertical-align:top;">raw_extension</td><td style="vertical-align:top;">:</td><td><div>None</div></td></tr><tr><td style="font-weight:bold;vertical-align:top;">url</td><td style="vertical-align:top;">:</td><td><div>/ratemyresume/default/hub</div></td></tr><tr><td style="font-weight:bold;vertical-align:top;">utcnow</td><td style="vertical-align:top;">:</td><td><div>datetime.datetime(2018, 12, 7, 4, 28, 53, 381000)</div></td></tr><tr><td style="font-weight:bold;vertical-align:top;">wsgi</td><td style="vertical-align:top;">:</td><td><div>&lt;gluon.main.LazyWSGI object at 0x000000000C193240&gt;</div></td></tr></table></div>'
tRp60
sS'frames'
p61
(lp62
(dp63
S'file'
p64
S'C:\\Users\\unuse\\OneDrive\\Documents\\CMPS 183\\web2py\\gluon\\restricted.py'
p65
sS'dump'
p66
(dp67
S'environment'
p68
S"{'A': <class 'gluon.html.A'>, 'ANY_OF': <class 'gluon.validators.ANY_OF'>, 'ASSIGNJS': <function ASSIGNJS>, 'AppConfig': <function AppConfig>, 'Auth': <class 'gluon.tools.Auth'>, 'B': <class 'gluon.html.B'>, 'BEAUTIFY': <class 'gluon.html.BEAUTIFY'>, 'BODY': <class 'gluon.html.BODY'>, 'BR': <class 'gluon.html.BR'>, 'BUTTON': <class 'gluon.html.BUTTON'>, ...}"
p69
sS'ccode'
p70
S'<code object <module> at 000000000BD53530, file ...ons\\ratemyresume\\views\\default/hub.html", line 1>'
p71
ssS'lnum'
p72
I219
sS'lines'
p73
(dp74
I214
S'    if environment is None:'
p75
sI215
S'        environment = {}'
p76
sI216
S"    environment['__file__'] = layer"
p77
sI217
S"    environment['__name__'] = '__restricted__'"
p78
sI218
S'    try:'
p79
sI219
S'        exec(ccode, environment)'
p80
sI220
S'    except HTTP:'
p81
sI221
S'        raise'
p82
sI222
S'    except RestrictedError:'
p83
sI223
S'        # do not encapsulate (obfuscate) the original RestrictedError'
p84
ssS'call'
p85
S'(ccode=<code object <module> at 000000000BD53530, file ...ons\\ratemyresume\\views\\default/hub.html", line 1>, environment={\'A\': <class \'gluon.html.A\'>, \'ANY_OF\': <class \'gluon.validators.ANY_OF\'>, \'ASSIGNJS\': <function ASSIGNJS>, \'AppConfig\': <function AppConfig>, \'Auth\': <class \'gluon.tools.Auth\'>, \'B\': <class \'gluon.html.B\'>, \'BEAUTIFY\': <class \'gluon.html.BEAUTIFY\'>, \'BODY\': <class \'gluon.html.BODY\'>, \'BR\': <class \'gluon.html.BR\'>, \'BUTTON\': <class \'gluon.html.BUTTON\'>, ...}, layer=r\'C:\\Users\\unuse\\OneDrive\\Documents\\CMPS 183\\web2py\\applications\\ratemyresume\\views\\default/hub.html\', scode=\'response.write(\\\'<html>\\\\r\\\\n  <head>\\\\r\\\\n    <meta ...});\\\\r\\\\n  </script>\\\\r\\\\n</html>\\\\r\\\\n", escape=False)\')'
p86
sS'func'
p87
S'restricted'
p88
sa(dp89
g64
S'C:\\Users\\unuse\\OneDrive\\Documents\\CMPS 183\\web2py\\applications\\ratemyresume\\views\\default\\hub.html'
p90
sg66
(dp91
S'varius'
p92
S'undefined'
p93
sS'risus'
p94
g93
sS'blandit'
p95
g93
sS'sagittis'
p96
g93
sS'elit'
p97
g93
sS'eu'
p98
g93
sS'at'
p99
g93
sS'enim'
p100
g93
sS'ante'
p101
g93
sS'et'
p102
g93
sS'vitae'
p103
g93
sS'est'
p104
g93
sS'sit'
p105
g93
sS'interdum'
p106
g93
sS'fringilla'
p107
g93
sS'nec'
p108
g93
sS'consectetur'
p109
g93
sS'vel'
p110
g93
sS'Lorem'
p111
g93
sS'luctus'
p112
g93
sS'metus'
p113
g93
sS'non'
p114
g93
sS'turpis'
p115
g93
sS'nisi'
p116
g93
sS'amet'
p117
g93
sS'faucibus'
p118
g93
sS'ipsum'
p119
g93
sS'neque'
p120
g93
sS'tempor'
p121
g93
sS'adipiscing'
p122
g93
sS'dolor'
p123
g93
sS'div'
p124
g93
ssg72
I49
sg73
(dp125
I40
S"    response.write('\\r\\n    </div>\\r\\n    ', escape=False)"
p126
sI41
S'    pass'
p127
sI42
S'response.write(\'\\r\\n    <header class="black padded">\\r\\n      <div class="container middle max900">\\r\\n        <div class="fill middle">\\r\\n          <label class="ham padded fa fa-bars" for="menu"></label>\\r\\n          <div class="burger accordion">\\r\\n            <input type="checkbox" id="menu"/>\\r\\n            \', escape=False)'
p128
sI43
S"response.write(MENU(response.menu,_class='menu'))"
p129
sI44
S'response.write(\'\\r\\n            <ul class="menu right">\\r\\n              <li>\\r\\n                \', escape=False)'
p130
sI45
S"response.write(auth.navbar(mode='dropdown'))"
p131
sI46
S'response.write(\'\\r\\n              </li>\\r\\n            </ul>\\r\\n          </div>\\r\\n        </div>\\r\\n      </div>\\r\\n    </header>\\r\\n    <main class="white" style="background: #E9EBEE">\\r\\n      \', escape=False)'
p132
sI47
S"response.write('\\r\\n\\r\\n', escape=False)"
p133
sI48
S'response.write(\'\\r\\n\\r\\n<!DOCTYPE html>\\r\\n<html lang="en">\\r\\n<div class="main_content">\\r\\n  <div id="vue-div" class="display:none">\\r\\n    <div class="container padded center resume_view">\\r\\n      <h4>My Resume </h4>\\r\\n      Resume Image <br>\\r\\n      Resume Title <br>\\r\\n      Average Score <br>\\r\\n    </div>\\r\\n\\r\\n      <div class="container padded center" v-show="!show_resume_feedback">\\r\\n          <button type="button" @click="show_feedback">Show Feedback</button>\\r\\n      </div>\\r\\n      <div class="container padded center" v-show="show_resume_feedback">\\r\\n          <button type="button" @click="show_feedback">Hide Feedback</button>\\r\\n          <div onmouseover="listing_mouseover(this)" onmouseout="listing_mouseout(this)" class="feedback_listing container">\\r\\n              <div class="third container">\\r\\n                  <div class="half">\\r\\n                      <i class="center fa fa-user fa-3x" aria-hidden="true"></i>\\r\\n                  </div>\\r\\n                  <div class="half">\\r\\n                      <div class="listing_author listing_text">John Doe</div>\\r\\n                      <div class="listing_text">Software Engineer</div>\\r\\n                  </div>\\r\\n              </div>\\r\\n              <div class="twothirds">\\r\\n                  <div class="listing_description listing_text">Lorem ipsum dolor sit amet, consectetur adipiscing elit. Integer turpis enim, varius nec faucibus interdum, fringilla in ante. Nunc non luctus neque, vel sagittis risus. Donec at nisi eu nisi blandit tempor vitae in ipsum. Cras et est sit amet metus.</div>\\r\\n              </div>\\r\\n          </div>\\r\\n          <div onmouseover="listing_mouseover(this)" onmouseout="listing_mouseout(this)" class="feedback_listing container">\\r\\n              <div class="third container">\\r\\n                  <div class="half">\\r\\n                      <i class="center fa fa-user fa-3x" aria-hidden="true"></i>\\r\\n                  </div>\\r\\n                  <div class="half">\\r\\n                      <div class="listing_author listing_text">John Doe</div>\\r\\n                      <div class="listing_text">Software Engineer</div>\\r\\n                  </div>\\r\\n              </div>\\r\\n              <div class="twothirds">\\r\\n                  <div class="listing_description listing_text">Lorem ipsum dolor sit amet, consectetur adipiscing elit. Integer turpis enim, varius nec faucibus interdum, fringilla in ante. Nunc non luctus neque, vel sagittis risus. Donec at nisi eu nisi blandit tempor vitae in ipsum. Cras et est sit amet metus.</div>\\r\\n              </div>\\r\\n          </div>\\r\\n          <div onmouseover="listing_mouseover(this)" onmouseout="listing_mouseout(this)" class="feedback_listing container">\\r\\n              <div class="third container">\\r\\n                  <div class="half">\\r\\n                      <i class="center fa fa-user fa-3x" aria-hidden="true"></i>\\r\\n                  </div>\\r\\n                  <div class="half">\\r\\n                      <div class="listing_author listing_text">John Doe</div>\\r\\n                      <div class="listing_text">Software Engineer</div>\\r\\n                  </div>\\r\\n              </div>\\r\\n              <div class="twothirds">\\r\\n                  <div class="listing_description listing_text">Lorem ipsum dolor sit amet, consectetur adipiscing elit. Integer turpis enim, varius nec faucibus interdum, fringilla in ante. Nunc non luctus neque, vel sagittis risus. Donec at nisi eu nisi blandit tempor vitae in ipsum. Cras et est sit amet metus.</div>\\r\\n              </div>\\r\\n          </div>\\r\\n      </div>\\r\\n\\r\\n    <div class="container padded center" v-show="!show_past_resumes">\\r\\n      <button type="button" name="button" @click="show_past_resume">Show Past Resumes</button>\\r\\n    </div>\\r\\n      <div class="container padded center" v-show="show_past_resumes">\\r\\n        <a href="\', escape=False)'
p134
sI49
S"response.write(URL('default', 'edit', args=[r['id']]))"
p135
sI50
S'response.write(\'" class="btn">\\r\\n            <i class="fa fa-pencil-square-o"></i> Edit\\r\\n        </a>\\r\\n      <button type="button" name="button" @click="show_past_resume">Hide Past Resumes</button>\\r\\n        <div onmouseover="listing_mouseover(this)" onmouseout="listing_mouseout(this)" class="resume_listing container">\\r\\n            <div class="half container">\\r\\n                <div class="third"></div>\\r\\n                <div class ="third">\\r\\n                    <span>\\r\\n                        <i style="margin: 25px auto" class="fa fa-file-text fa-5x" aria-hidden="true"></i>\\r\\n                    </span>\\r\\n                </div>\\r\\n            </div>\\r\\n            <div class="half container">\\r\\n                <h6>Resume Title</h6>\\r\\n                <div class="listing_author listing_text">Author: John Doe</div>\\r\\n                <div class="listing_date listing_text">Date: December 25, 2018</div>\\r\\n                <div class="listing_description listing_text">Lorem ipsum dolor sit amet, consectetur adipiscing elit. Integer turpis enim, varius nec faucibus interdum, fringilla in ante. Nunc non luctus neque, vel sagittis risus. Donec at nisi eu nisi blandit tempor vitae in ipsum. Cras et est sit amet metus.</div>\\r\\n            </div>\\r\\n        </div>\\r\\n        <div onmouseover="listing_mouseover(this)" onmouseout="listing_mouseout(this)" class="resume_listing container">\\r\\n            <div class="half container">\\r\\n                <div class="third"></div>\\r\\n                <div class ="third">\\r\\n                    <span>\\r\\n                        <i style="margin: 25px auto" class="fa fa-file-text fa-5x" aria-hidden="true"></i>\\r\\n                    </span>\\r\\n                </div>\\r\\n            </div>\\r\\n            <div class="half container">\\r\\n                <h6>Resume Title</h6>\\r\\n                <div class="listing_author listing_text">Author: John Doe</div>\\r\\n                <div class="listing_date listing_text">Date: December 25, 2018</div>\\r\\n                <div class="listing_description listing_text">Lorem ipsum dolor sit amet, consectetur adipiscing elit. Integer turpis enim, varius nec faucibus interdum, fringilla in ante. Nunc non luctus neque, vel sagittis risus. Donec at nisi eu nisi blandit tempor vitae in ipsum. Cras et est sit amet metus.</div>\\r\\n            </div>\\r\\n        </div>\\r\\n    </div>\\r\\n</div>\\r\\n</div>\\r\\n\\r\\n\\r\\n<script src="\', escape=False)'
p136
sI51
S"response.write(URL('static', 'js/default_hub.js'))"
p137
sI52
S'response.write(\'"></script>\', escape=False)'
p138
sI53
S'response.write(\'\\r\\n    </main>\\r\\n  </body>\\r\\n  <script src="\', escape=False)'
p139
sI54
S"response.write(URL('static','js/marked.min.js'))"
p140
sI55
S'response.write(\'"></script>\\r\\n  <script src="\', escape=False)'
p141
sI56
S"response.write(URL('static','js/vue.min.js'))"
p142
sI57
S'response.write(\'"></script>\\r\\n  \', escape=False)'
p143
sI58
S'response.write("\\r\\n  <script>\\r\\n    jQuery(\'.social a\').each(function(){var t=jQuery(this); t.attr(\'href\',t.attr(\'href\').replace(\'{url}\',encodeURIComponent(window.location.href)));});\\r\\n  </script>\\r\\n</html>\\r\\n", escape=False)'
p144
ssg85
S'()'
p145
sg87
S'<module>'
p146
sasS'pyver'
p147
S'Python 2.7.15: C:\\Users\\unuse\\AppData\\Local\\conda\\conda\\envs\\python27\\python.exe (prefix: C:\\Users\\unuse\\AppData\\Local\\conda\\conda\\envs\\python27)'
p148
sS'session'
p149
g59
(S's\x1a\x00\x00\x00<div><table></table></div>'
tRp150
sS'etype'
p151
S"<type 'exceptions.NameError'>"
p152
sS'date'
p153
S'Thu Dec  6 20:28:53 2018'
p154
sS'response'
p155
g59
(S's\x0f \x00\x00<div><table><tr><td style="font-weight:bold;vertical-align:top;">body</td><td style="vertical-align:top;">:</td><td><div>&lt;cStringIO.StringO object at 0x000000000C193D50&gt;</div></td></tr><tr><td style="font-weight:bold;vertical-align:top;">cookies</td><td style="vertical-align:top;">:</td><td><div><table><tr><td style="font-weight:bold;vertical-align:top;">session_id_ratemyresume</td><td style="vertical-align:top;">:</td><td><div>1:8bf3e264-654a-4090-a25d-9bb39951efb3<table><tr><td style="font-weight:bold;vertical-align:top;">comment</td><td style="vertical-align:top;">:</td><td><div></div></td></tr><tr><td style="font-weight:bold;vertical-align:top;">domain</td><td style="vertical-align:top;">:</td><td><div></div></td></tr><tr><td style="font-weight:bold;vertical-align:top;">expires</td><td style="vertical-align:top;">:</td><td><div></div></td></tr><tr><td style="font-weight:bold;vertical-align:top;">httponly</td><td style="vertical-align:top;">:</td><td><div></div></td></tr><tr><td style="font-weight:bold;vertical-align:top;">max-age</td><td style="vertical-align:top;">:</td><td><div></div></td></tr><tr><td style="font-weight:bold;vertical-align:top;">path</td><td style="vertical-align:top;">:</td><td><div>/</div></td></tr><tr><td style="font-weight:bold;vertical-align:top;">samesite</td><td style="vertical-align:top;">:</td><td><div></div></td></tr><tr><td style="font-weight:bold;vertical-align:top;">secure</td><td style="vertical-align:top;">:</td><td><div></div></td></tr><tr><td style="font-weight:bold;vertical-align:top;">version</td><td style="vertical-align:top;">:</td><td><div></div></td></tr></table></div></td></tr></table></div></td></tr><tr><td style="font-weight:bold;vertical-align:top;">delimiters</td><td style="vertical-align:top;">:</td><td><div><table><tr><td><div>{{</div></td></tr><tr><td><div>}}</div></td></tr></table></div></td></tr><tr><td style="font-weight:bold;vertical-align:top;">files</td><td style="vertical-align:top;">:</td><td><div><table><tr><td><div>/ratemyresume/static/js/jquery.js</div></td></tr><tr><td><div>/ratemyresume/static/css/calendar.css</div></td></tr><tr><td><div>/ratemyresume/static/js/calendar.js</div></td></tr><tr><td><div>/ratemyresume/static/js/web2py.js</div></td></tr></table></div></td></tr><tr><td style="font-weight:bold;vertical-align:top;">flash</td><td style="vertical-align:top;">:</td><td><div></div></td></tr><tr><td style="font-weight:bold;vertical-align:top;">form_label_separator</td><td style="vertical-align:top;">:</td><td><div></div></td></tr><tr><td style="font-weight:bold;vertical-align:top;">formstyle</td><td style="vertical-align:top;">:</td><td><div>bootstrap3_inline</div></td></tr><tr><td style="font-weight:bold;vertical-align:top;">generic_patterns</td><td style="vertical-align:top;">:</td><td><div><table><tr><td><div>*</div></td></tr></table></div></td></tr><tr><td style="font-weight:bold;vertical-align:top;">google_analytics_id</td><td style="vertical-align:top;">:</td><td><div>None</div></td></tr><tr><td style="font-weight:bold;vertical-align:top;">headers</td><td style="vertical-align:top;">:</td><td><div><table><tr><td style="font-weight:bold;vertical-align:top;">X-Powered-By</td><td style="vertical-align:top;">:</td><td><div>web2py</div></td></tr></table></div></td></tr><tr><td style="font-weight:bold;vertical-align:top;">logo</td><td style="vertical-align:top;">:</td><td><div><a class="navbar-brand" href="http://www.web2py.com/" id="web2py-logo"><b>web<span>2</span>py</b>&trade;&nbsp;</a></div></td></tr><tr><td style="font-weight:bold;vertical-align:top;">menu</td><td style="vertical-align:top;">:</td><td><div><table><tr><td><div><table><tr><td><div>Home</div></td></tr><tr><td><div>False</div></td></tr><tr><td><div>/ratemyresume/default/hub</div></td></tr><tr><td><div><table></table></div></td></tr></table></div></td></tr><tr><td><div><table><tr><td><div>Rate a Resume</div></td></tr><tr><td><div>False</div></td></tr><tr><td><div>/ratemyresume/default/rateresume</div></td></tr></table></div></td></tr><tr><td><div><table><tr><td><div>Reviews</div></td></tr><tr><td><div>False</div></td></tr><tr><td><div>/ratemyresume/default/resume_reviews</div></td></tr></table></div></td></tr></table></div></td></tr><tr><td style="font-weight:bold;vertical-align:top;">meta</td><td style="vertical-align:top;">:</td><td><div><table><tr><td style="font-weight:bold;vertical-align:top;">author</td><td style="vertical-align:top;">:</td><td><div>Your Name &lt;you@example.com&gt;</div></td></tr><tr><td style="font-weight:bold;vertical-align:top;">description</td><td style="vertical-align:top;">:</td><td><div>a cool new app</div></td></tr><tr><td style="font-weight:bold;vertical-align:top;">generator</td><td style="vertical-align:top;">:</td><td><div>Web2py Web Framework</div></td></tr><tr><td style="font-weight:bold;vertical-align:top;">keywords</td><td style="vertical-align:top;">:</td><td><div><table><tr><td><div>web2py</div></td></tr><tr><td><div>python</div></td></tr><tr><td><div>framework</div></td></tr></table></div></td></tr></table></div></td></tr><tr><td style="font-weight:bold;vertical-align:top;">models_to_run</td><td style="vertical-align:top;">:</td><td><div><table><tr><td><div>^\\w+\\.py$</div></td></tr><tr><td><div>^default/\\w+\\.py$</div></td></tr><tr><td><div>^default/hub/\\w+\\.py$</div></td></tr></table></div></td></tr><tr><td style="font-weight:bold;vertical-align:top;">postprocessing</td><td style="vertical-align:top;">:</td><td><div><table></table></div></td></tr><tr><td style="font-weight:bold;vertical-align:top;">session_client</td><td style="vertical-align:top;">:</td><td><div>127.0.0.1</div></td></tr><tr><td style="font-weight:bold;vertical-align:top;">session_cookie_compression_level</td><td style="vertical-align:top;">:</td><td><div>None</div></td></tr><tr><td style="font-weight:bold;vertical-align:top;">session_cookie_expires</td><td style="vertical-align:top;">:</td><td><div>None</div></td></tr><tr><td style="font-weight:bold;vertical-align:top;">session_data_name</td><td style="vertical-align:top;">:</td><td><div>session_data_ratemyresume</div></td></tr><tr><td style="font-weight:bold;vertical-align:top;">session_db_record_id</td><td style="vertical-align:top;">:</td><td><div>1L</div></td></tr><tr><td style="font-weight:bold;vertical-align:top;">session_db_table</td><td style="vertical-align:top;">:</td><td><div>&lt;Table web2py_session_ratemyresume (id, locked, client_ip, created_datetime, modified_datetime, unique_key, session_data)&gt;</div></td></tr><tr><td style="font-weight:bold;vertical-align:top;">session_db_unique_key</td><td style="vertical-align:top;">:</td><td><div>8bf3e264-654a-4090-a25d-9bb39951efb3</div></td></tr><tr><td style="font-weight:bold;vertical-align:top;">session_hash</td><td style="vertical-align:top;">:</td><td><div>c0762cbf4baf7f9af97c051e7fcb8083</div></td></tr><tr><td style="font-weight:bold;vertical-align:top;">session_id</td><td style="vertical-align:top;">:</td><td><div>1:8bf3e264-654a-4090-a25d-9bb39951efb3</div></td></tr><tr><td style="font-weight:bold;vertical-align:top;">session_id_name</td><td style="vertical-align:top;">:</td><td><div>session_id_ratemyresume</div></td></tr><tr><td style="font-weight:bold;vertical-align:top;">session_masterapp</td><td style="vertical-align:top;">:</td><td><div>ratemyresume</div></td></tr><tr><td style="font-weight:bold;vertical-align:top;">session_new</td><td style="vertical-align:top;">:</td><td><div>False</div></td></tr><tr><td style="font-weight:bold;vertical-align:top;">session_storage_type</td><td style="vertical-align:top;">:</td><td><div>db</div></td></tr><tr><td style="font-weight:bold;vertical-align:top;">status</td><td style="vertical-align:top;">:</td><td><div>200</div></td></tr><tr><td style="font-weight:bold;vertical-align:top;">subtitle</td><td style="vertical-align:top;">:</td><td><div></div></td></tr><tr><td style="font-weight:bold;vertical-align:top;">title</td><td style="vertical-align:top;">:</td><td><div>Ratemyresume</div></td></tr><tr><td style="font-weight:bold;vertical-align:top;">view</td><td style="vertical-align:top;">:</td><td><div>default/hub.html</div></td></tr></table></div>'
tRp156
sS'locals'
p157
(dp158
S'Service'
p159
S"<class 'gluon.tools.Service'>"
p160
sS'FORMAT'
p161
S"'%(asctime)s %(levelname)s %(process)s %(thread)s %(funcName)s():%(lineno)d %(message)s'"
p162
sS'PY2'
p163
S'True'
p164
sS'OBJECT'
p165
S"<class 'gluon.html.OBJECT'>"
p166
sS'SQLDB'
p167
S"<class 'pydal.base.DAL'>"
p168
sg149
S'<Storage {}>'
p169
sS'LINK'
p170
S"<class 'gluon.html.LINK'>"
p171
sS'BR'
p172
S"<class 'gluon.html.BR'>"
p173
sS'local_import'
p174
S'<function <lambda>>'
p175
sS'OPTGROUP'
p176
S"<class 'gluon.html.OPTGROUP'>"
p177
sS'__package__'
p178
S'None'
p179
sS'PRE'
p180
S"<class 'gluon.html.PRE'>"
p181
sS'IS_INT_IN_RANGE'
p182
S"<class 'gluon.validators.IS_INT_IN_RANGE'>"
p183
sS'to_bytes'
p184
S'<function to_bytes>'
p185
sS'IS_LOWER'
p186
S"<class 'gluon.validators.IS_LOWER'>"
p187
sS'IS_STRONG'
p188
S"<class 'gluon.validators.IS_STRONG'>"
p189
sS'cache'
p190
S'<gluon.cache.Cache object>'
p191
sS'IS_IN_DB'
p192
S"<class 'gluon.validators.IS_IN_DB'>"
p193
sS'TAG'
p194
S'<gluon.html.__TAG__ object>'
p195
sS'SQLField'
p196
S"<class 'pydal.objects.Field'>"
p197
sS'mail'
p198
S'<gluon.tools.Mail object>'
p199
sS'logger'
p200
S'<logging.Logger object>'
p201
sS'BODY'
p202
S"<class 'gluon.html.BODY'>"
p203
sS'IS_DATE_IN_RANGE'
p204
S"<class 'gluon.validators.IS_DATE_IN_RANGE'>"
p205
sS'IFRAME'
p206
S"<class 'gluon.html.IFRAME'>"
p207
sS'URL'
p208
S'<function URL>'
p209
sS'__file__'
p210
S"r'C:\\Users\\unuse\\OneDrive\\Documents\\CMPS 183\\web2py\\applications\\ratemyresume\\views\\default/hub.html'"
p211
sS'db'
p212
S'<DAL uri="sqlite://storage.sqlite">'
p213
sS'auth'
p214
S'<gluon.tools.Auth object>'
p215
sS'P'
S"<class 'gluon.html.P'>"
p216
sS'T'
S'<gluon.languages.translator object>'
p217
sS'iteritems'
p218
S'<function <lambda>>'
p219
sS'XHTML'
p220
S"<class 'gluon.html.XHTML'>"
p221
sS'datetime'
p222
S"<module 'datetime' (built-in)>"
p223
sS'ON'
p224
g164
sS'OL'
p225
S"<class 'gluon.html.OL'>"
p226
sS'TEXTAREA'
p227
S"<class 'gluon.html.TEXTAREA'>"
p228
sS'MENU'
p229
S"<class 'gluon.html.MENU'>"
p230
sS'get_current_time'
p231
S'<function get_current_time>'
p232
sS'EM'
p233
S"<class 'gluon.html.EM'>"
p234
sS'CODE'
p235
S"<class 'gluon.html.CODE'>"
p236
sS'HTTP'
p237
S"<class 'gluon.http.HTTP'>"
p238
sS'HR'
p239
S"<class 'gluon.html.HR'>"
p240
sS'IS_DATETIME'
p241
S"<class 'gluon.validators.IS_DATETIME'>"
p242
sS'reduce'
p243
S'<built-in function reduce>'
p244
sS'STYLE'
p245
S"<class 'gluon.html.STYLE'>"
p246
sS'LABEL'
p247
S"<class 'gluon.html.LABEL'>"
p248
sS'CLEANUP'
p249
S"<class 'gluon.validators.CLEANUP'>"
p250
sS'plugins'
p251
S'<gluon.tools.PluginManager object>'
p252
sS'SELECT'
p253
S"<class 'gluon.html.SELECT'>"
p254
sS'CENTER'
p255
S"<class 'gluon.html.CENTER'>"
p256
sS'Auth'
p257
S"<class 'gluon.tools.Auth'>"
p258
sS'DEVELOPMENT_MENU'
p259
g164
sS'__builtins__'
p260
S"{'ArithmeticError': <type 'exceptions.ArithmeticError'>, 'AssertionError': <type 'exceptions.AssertionError'>, 'AttributeError': <type 'exceptions.AttributeError'>, 'BaseException': <type 'exceptions.BaseException'>, 'BufferError': <type 'exceptions.BufferError'>, 'BytesWarning': <type 'exceptions.BytesWarning'>, 'DeprecationWarning': <type 'exceptions.DeprecationWarning'>, 'EOFError': <type 'exceptions.EOFError'>, 'Ellipsis': Ellipsis, 'EnvironmentError': <type 'exceptions.EnvironmentError'>, ...}"
p261
sS'HTML'
p262
S"<class 'gluon.html.HTML'>"
p263
sS'SQLFORM'
p264
S"<class 'gluon.sqlhtml.SQLFORM'>"
p265
sS'LOAD'
p266
S'<function LOAD>'
p267
sS'redirect'
p268
S'<function redirect>'
p269
sS'FIELDSET'
p270
S"<class 'gluon.html.FIELDSET'>"
p271
sS'IS_EQUAL_TO'
p272
S"<class 'gluon.validators.IS_EQUAL_TO'>"
p273
sS'embed64'
p274
S'<function embed64>'
p275
sS'IS_LIST_OF'
p276
S"<class 'gluon.validators.IS_LIST_OF'>"
p277
sS'INPUT'
p278
S"<class 'gluon.html.INPUT'>"
p279
sS'EMBED'
p280
S"<class 'gluon.html.EMBED'>"
p281
sS'_'
S'<function _>'
p282
sS'FORM'
p283
S"<class 'gluon.html.FORM'>"
p284
sS'logging'
p285
S"<module 'logging' from 'C:\\Users\\unuse\\AppData\\L...da\\conda\\envs\\python27\\lib\\logging\\__init__.pyc'>"
p286
sS'myconf'
p287
S"{'forms': {'formstyle': 'bootstrap3_inline', 'se...': {'names': 'localhost:*, 127.0.0.1:*, *:*, *'}}"
p288
sS'H2'
p289
S"<class 'gluon.html.H2'>"
p290
sS'H3'
p291
S"<class 'gluon.html.H3'>"
p292
sS'AppConfig'
p293
S'<function AppConfig>'
p294
sS'H1'
p295
S"<class 'gluon.html.H1'>"
p296
sS'H6'
p297
S"<class 'gluon.html.H6'>"
p298
sS'H4'
p299
S"<class 'gluon.html.H4'>"
p300
sS'H5'
p301
S"<class 'gluon.html.H5'>"
p302
sS'UL'
p303
S"<class 'gluon.html.UL'>"
p304
sS'IS_UPPER'
p305
S"<class 'gluon.validators.IS_UPPER'>"
p306
sS'xmlescape'
p307
S'<function xmlescape>'
p308
sS'IS_TIME'
p309
S"<class 'gluon.validators.IS_TIME'>"
p310
sS'OPTION'
p311
S"<class 'gluon.html.OPTION'>"
p312
sS'TITLE'
p313
S"<class 'gluon.html.TITLE'>"
p314
sS'CRYPT'
p315
S"<class 'gluon.validators.CRYPT'>"
p316
sS'IS_EMPTY_OR'
p317
S"<class 'gluon.validators.IS_EMPTY_OR'>"
p318
sS'MARKMIN'
p319
S"<class 'gluon.html.MARKMIN'>"
p320
sS'__name__'
p321
S"'__restricted__'"
p322
sS'STRONG'
p323
S"<class 'gluon.html.STRONG'>"
p324
sS'COL'
p325
S"<class 'gluon.html.COL'>"
p326
sS'service'
p327
S'<gluon.tools.Service object>'
p328
sS'SCRIPT'
p329
S"<class 'gluon.html.SCRIPT'>"
p330
sS'TABLE'
p331
S"<class 'gluon.html.TABLE'>"
p332
sS'IS_IPV4'
p333
S"<class 'gluon.validators.IS_IPV4'>"
p334
sS'IS_LENGTH'
p335
S"<class 'gluon.validators.IS_LENGTH'>"
p336
sS'IS_IPV6'
p337
S"<class 'gluon.validators.IS_IPV6'>"
p338
sS'XML'
p339
S"<class 'gluon.html.XML'>"
p340
sS'B'
S"<class 'gluon.html.B'>"
p341
sS'IMG'
p342
S"<class 'gluon.html.IMG'>"
p343
sS'SQLTABLE'
p344
S"<class 'gluon.sqlhtml.SQLTABLE'>"
p345
sS'IS_MATCH'
p346
S"<class 'gluon.validators.IS_MATCH'>"
p347
sS'IS_ALPHANUMERIC'
p348
S"<class 'gluon.validators.IS_ALPHANUMERIC'>"
p349
sS'get_user_email'
p350
S'<function get_user_email>'
p351
sS'SPAN'
p352
S"<class 'gluon.html.SPAN'>"
p353
sS'IS_JSON'
p354
S"<class 'gluon.validators.IS_JSON'>"
p355
sS'IS_IPADDRESS'
p356
S"<class 'gluon.validators.IS_IPADDRESS'>"
p357
sS'IS_SLUG'
p358
S"<class 'gluon.validators.IS_SLUG'>"
p359
sS'BEAUTIFY'
p360
S"<class 'gluon.html.BEAUTIFY'>"
p361
sS'META'
p362
S"<class 'gluon.html.META'>"
p363
sS'BUTTON'
p364
S"<class 'gluon.html.BUTTON'>"
p365
sS'IS_DATE'
p366
S"<class 'gluon.validators.IS_DATE'>"
p367
sS'IS_EMAIL'
p368
S"<class 'gluon.validators.IS_EMAIL'>"
p369
sS'IS_NOT_EMPTY'
p370
S"<class 'gluon.validators.IS_NOT_EMPTY'>"
p371
sS'xrange'
p372
S"<type 'xrange'>"
p373
sS'TBODY'
p374
S"<class 'gluon.html.TBODY'>"
p375
sS'CAT'
p376
S"<class 'gluon.html.CAT'>"
p377
sS'Field'
p378
S"<class 'pydal.objects.Field'>"
p379
sS'IS_LIST_OF_EMAILS'
p380
S"<class 'gluon.validators.IS_LIST_OF_EMAILS'>"
p381
sg58
S"<Storage {'function': 'hub', 'cookies': <SimpleC...False, 'is_https': False, 'client': '127.0.0.1'}>"
p382
sS'DIV'
p383
S"<class 'gluon.html.DIV'>"
p384
sS'LEGEND'
p385
S"<class 'gluon.html.LEGEND'>"
p386
sS'to_native'
p387
S'<function to_native>'
p388
sS'COLGROUP'
p389
S"<class 'gluon.html.COLGROUP'>"
p390
sS'DAL'
p391
S"<class 'pydal.base.DAL'>"
p392
sS'ASSIGNJS'
p393
S'<function ASSIGNJS>'
p394
sS'TR'
p395
S"<class 'gluon.html.TR'>"
p396
sS'LI'
p397
S"<class 'gluon.html.LI'>"
p398
sS'TH'
p399
S"<class 'gluon.html.TH'>"
p400
sS'TD'
p401
S"<class 'gluon.html.TD'>"
p402
sS'PluginManager'
p403
S"<class 'gluon.tools.PluginManager'>"
p404
sS'IS_URL'
p405
S"<class 'gluon.validators.IS_URL'>"
p406
sS'A'
S"<class 'gluon.html.A'>"
p407
sS'HEAD'
p408
S"<class 'gluon.html.HEAD'>"
p409
sS'IS_DATETIME_IN_RANGE'
p410
S"<class 'gluon.validators.IS_DATETIME_IN_RANGE'>"
p411
sS'IS_IMAGE'
p412
S"<class 'gluon.validators.IS_IMAGE'>"
p413
sS'I'
S"<class 'gluon.html.I'>"
p414
sS'sys'
p415
S"<module 'sys' (built-in)>"
p416
sS'IS_NOT_IN_DB'
p417
S"<class 'gluon.validators.IS_NOT_IN_DB'>"
p418
sg155
S"<Storage {'body': <cStringIO.StringO object at 0...key, session_data)>, 'view': 'default/hub.html'}>"
p419
sS'THEAD'
p420
S"<class 'gluon.html.THEAD'>"
p421
sS'ANY_OF'
p422
S"<class 'gluon.validators.ANY_OF'>"
p423
sS'IS_NULL_OR'
p424
S"<class 'gluon.validators.IS_EMPTY_OR'>"
p425
sS'TFOOT'
p426
S"<class 'gluon.html.TFOOT'>"
p427
sS'IS_FLOAT_IN_RANGE'
p428
S"<class 'gluon.validators.IS_FLOAT_IN_RANGE'>"
p429
sS'IS_EXPR'
p430
S"<class 'gluon.validators.IS_EXPR'>"
p431
sS'IS_IN_SET'
p432
S"<class 'gluon.validators.IS_IN_SET'>"
p433
sS'IS_UPLOAD_FILENAME'
p434
S"<class 'gluon.validators.IS_UPLOAD_FILENAME'>"
p435
sS'TT'
p436
S"<class 'gluon.html.TT'>"
p437
sS'IS_DECIMAL_IN_RANGE'
p438
S"<class 'gluon.validators.IS_DECIMAL_IN_RANGE'>"
p439
sssS'traceback'
p440
S'Traceback (most recent call last):\n  File "C:\\Users\\unuse\\OneDrive\\Documents\\CMPS 183\\web2py\\gluon\\restricted.py", line 219, in restricted\n    exec(ccode, environment)\n  File "C:\\Users\\unuse\\OneDrive\\Documents\\CMPS 183\\web2py\\applications\\ratemyresume\\views\\default/hub.html", line 49, in <module>\n    <div class="listing_description listing_text">Lorem ipsum dolor sit amet, consectetur adipiscing elit. Integer turpis enim, varius nec faucibus interdum, fringilla in ante. Nunc non luctus neque, vel sagittis risus. Donec at nisi eu nisi blandit tempor vitae in ipsum. Cras et est sit amet metus.</div>\nNameError: name \'r\' is not defined\n'
p441
s.